(dp0
S'freq_dist'
p1
cnltk.probability
FreqDist
p2
((dp3
S''
p4
I708
sS'limited'
p5
I5
sS'all'
p6
I29
sS'dfs'
p7
I2
sS'lace'
p8
I4
sS'exponentiation'
p9
I4
sS'dynamic'
p10
I30
sS'four'
p11
I1
sS'executing'
p12
I10
sS'prefix'
p13
I2
sS'code'
p14
I16
sS'encapsulation'
p15
I1
sS'consists'
p16
I1
sS'expressions'
p17
I4
sS'disk'
p18
I8
sS'integrity'
p19
I1
sS'children'
p20
I2
sS'whose'
p21
I9
sS'replacements'
p22
I8
sS'calculate'
p23
I5
sS'segments'
p24
I4
sS'similarity'
p25
I16
sS'subcomponents'
p26
I2
sS'doublylinked'
p27
I3
sS'to'
p28
I285
sS'program'
p29
I37
sS'batched'
p30
I2
sS'swap'
p31
I4
sS'under'
p32
I2
sS'nodes'
p33
I27
sS'sound'
p34
I12
sS'digit'
p35
I12
sS'straightforward'
p36
I4
sS'very'
p37
I4
sS'connects'
p38
I4
sS'every'
p39
I27
sS'processthey'
p40
I1
sS'difference'
p41
I17
sS'condition'
p42
I5
sS'front1'
p43
I1
sS'randomness'
p44
I6
sS'rootvisitrootinorderright'
p45
I2
sS'bypasses'
p46
I4
sS'exponential'
p47
I17
sS'exponentiating'
p48
I4
sS'list'
p49
I105
sS'solution'
p50
I23
sS'large'
p51
I14
sS'cannibalizing'
p52
I16
sS'pronounced'
p53
I8
sS'enclosing'
p54
I4
sS'indices'
p55
I4
sS'referred'
p56
I1
sS'reliable'
p57
I4
sS'smithwaterman'
p58
I4
sS'overrunio'
p59
I1
sS'force'
p60
I9
sS'andor'
p61
I4
sS'subproblems'
p62
I1
sS'complement'
p63
I4
sS'approximation'
p64
I11
sS'kargerstein'
p65
I4
sS'hors'
p66
I4
sS'design'
p67
I30
sS'pass'
p68
I6
sS'further'
p69
I5
sS'implemented'
p70
I2
sS'canonical'
p71
I4
sS'what'
p72
I611
sS'nonlinear'
p73
I3
sS'specification'
p74
I5
sS'near'
p75
I4
sS'reasoning'
p76
I3
sS'birkhoff'
p77
I4
sS'dijkstras'
p78
I8
sS'intersect'
p79
I8
sS'designing'
p80
I4
sS'new'
p81
I2
sS'increasing'
p82
I12
sS'consisting'
p83
I1
sS'movement'
p84
I1
sS'coefficient'
p85
I4
sS'compact'
p86
I4
sS'hash'
p87
I5
sS'responsiveness'
p88
I2
sS'wrapping'
p89
I4
sS'here'
p90
I1
sS'modular'
p91
I4
sS'pratt'
p92
I4
sS'threads'
p93
I1
sS'schreiersims'
p94
I4
sS'represented'
p95
I5
sS'path'
p96
I54
sS'100'
p97
I4
sS'strong'
p98
I4
sS'equations'
p99
I4
sS'logarithmic'
p100
I13
sS'timsort'
p101
I4
sS'digits'
p102
I16
sS'search'
p103
I215
sS'endpoints'
p104
I4
sS'brents'
p105
I4
sS'divisor'
p106
I4
sS'inefficiently'
p107
I4
sS'items'
p108
I8
sS'leaves'
p109
I1
sS'dinicsalgorithm'
p110
I4
sS'amount'
p111
I13
sS'loop'
p112
I9
sS'permutation'
p113
I16
sS'action'
p114
I4
sS'symmetrical'
p115
I1
sS'suitable'
p116
I4
sS'manwunsch'
p117
I4
sS'quotient'
p118
I4
sS'via'
p119
I1
sS'shuffle'
p120
I8
sS'divide'
p121
I9
sS'processready'
p122
I1
sS'requiring'
p123
I4
sS'babystep'
p124
I8
sS'while'
p125
I7
sS'replace'
p126
I1
sS'brought'
p127
I1
sS'patience'
p128
I4
sS'unix'
p129
I2
sS'supersequence'
p130
I4
sS'methodmid'
p131
I2
sS'total'
p132
I5
sS'unit'
p133
I4
sS'managementinterrupt'
p134
I1
sS'executable'
p135
I4
sS'spaceprogramming'
p136
I3
sS'would'
p137
I2
sS'contains'
p138
I9
sS'hanoi'
p139
I1
sS'two'
p140
I100
sS'comparing'
p141
I3
sS'6'
p142
I1
sS'taken'
p143
I3
sS'systemstimesharing'
p144
I2
sS'type'
p145
I2
sS'tell'
p146
I1
sS'opensource'
p147
I8
sS'naive'
p148
I8
sS'constructs'
p149
I5
sS'accessories'
p150
I1
sS'floyd'
p151
I4
sS'particular'
p152
I4
sS'known'
p153
I10
sS'benefits'
p154
I2
sS'must'
p155
I1
sS'worst'
p156
I68
sS'avl'
p157
I9
sS'endpoint'
p158
I8
sS'word'
p159
I1
sS'science'
p160
I1
sS'equation'
p161
I16
sS'work'
p162
I10
sS'buchbergers'
p163
I4
sS'obstacle'
p164
I4
sS'concepts'
p165
I1
sS'strategies'
p166
I3
sS'root'
p167
I35
sS'example'
p168
I11
sS'pick'
p169
I4
sS'ready'
p170
I8
sS'f4'
p171
I4
sS'f5'
p172
I4
sS'give'
p173
I18
sS'iterative'
p174
I7
sS'share'
p175
I1
sS'implementations'
p176
I1
sS'involve'
p177
I2
sS'andsystem'
p178
I1
sS'minimum'
p179
I30
sS'numbers'
p180
I21
sS'scheduling'
p181
I4
sS'feasible'
p182
I1
sS'unordered'
p183
I4
sS'longest'
p184
I32
sS'absolute'
p185
I8
sS'aging'
p186
I8
sS'ones'
p187
I4
sS'end'
p188
I10
sS'processors'
p189
I4
sS'rather'
p190
I4
sS'feature'
p191
I2
sS'machine'
p192
I16
sS'how'
p193
I302
sS'methodology'
p194
I1
sS'adjacent'
p195
I12
sS'answer'
p196
I1
sS'ancestor'
p197
I1
sS'classify'
p198
I9
sS'classifying'
p199
I1
sS'abstraction'
p200
I1
sS'circuit'
p201
I8
sS'transforming'
p202
I1
sS'bkm'
p203
I4
sS'after'
p204
I2
sS'derived'
p205
I4
sS'diagram'
p206
I12
sS'wrong'
p207
I3
sS'mesh'
p208
I4
sS'processterminated'
p209
I1
sS'kruskals'
p210
I1
sS'parallel'
p211
I14
sS'types'
p212
I18
sS'postorder'
p213
I2
sS'a'
p214
I954
sS'attempt'
p215
I4
sS'substructures'
p216
I1
sS'sets'
p217
I4
sS'postfix'
p218
I1
sS'bootstrap'
p219
I1
sS'life'
p220
I1
sS'fischeryates'
p221
I4
sS'complexity'
p222
I26
sS'algorithms'
p223
I123
sS'fundamental'
p224
I4
sS'balancing'
p225
I1
sS'order'
p226
I67
sS'c2'
p227
I3
sS'bsgs'
p228
I4
sS'operations'
p229
I6
sS'executed'
p230
I16
sS'help'
p231
I1
sS'developed'
p232
I4
sS'over'
p233
I8
sS'specialpurpose'
p234
I4
sS'vary'
p235
I8
sS'dijkstra'
p236
I1
sS'oddeven'
p237
I4
sS'enumeration'
p238
I3
sS'its'
p239
I15
sS'roots'
p240
I8
sS'before'
p241
I2
sS'fir'
p242
I1
sS'chakravala'
p243
I4
sS'23'
p244
I4
sS'swappinginteractive'
p245
I2
sS'pcs'
p246
I1
sS'affine'
p247
I4
sS'nonblocking'
p248
I8
sS'schonhagestrassen'
p249
I4
sS'drawback'
p250
I4
sS'systems'
p251
I17
sS'pcb'
p252
I4
sS'travelling'
p253
I8
sS'maximal'
p254
I12
sS'then'
p255
I13
sS'them'
p256
I13
sS'return'
p257
I2
sS'combination'
p258
I4
sS'comparisonbased'
p259
I4
sS'similar'
p260
I4
sS'number'
p261
I55
sS'they'
p262
I16
sS'boyermoore'
p263
I4
sS'communities'
p264
I4
sS'instructions'
p265
I13
sS'represents'
p266
I1
sS'finite'
p267
I24
sS'spigot'
p268
I8
sS'warshall'
p269
I4
sS'edge'
p270
I19
sS'queues'
p271
I6
sS'classified'
p272
I1
sS'alternately'
p273
I4
sS'each'
p274
I14
sS'found'
p275
I8
sS'mean'
p276
I275
sS'constructing'
p277
I4
sS'freedbranch'
p278
I1
sS'61234'
p279
I1
sS'generation'
p280
I10
sS'contiguous'
p281
I2
sS'reduce'
p282
I4
sS'idea'
p283
I4
sS'runningexample'
p284
I4
sS'logb'
p285
I4
sS'connect'
p286
I4
sS'loops'
p287
I1
sS'operation'
p288
I6
sS'array'
p289
I10
sS'backing'
p290
I1
sS'network'
p291
I9
sS'realtime'
p292
I2
sS'quality'
p293
I8
sS'lavenshtein'
p294
I4
sS'inplace'
p295
I4
sS'propertyheap'
p296
I1
sS'7'
p297
I4
sS'offline'
p298
I4
sS'evaluation'
p299
I1
sS'occurs'
p300
I6
sS'independence'
p301
I1
sS'linear'
p302
I68
sS'interchange'
p303
I4
sS'driver'
p304
I13
sS'booting'
p305
I2
sS'voltages'
p306
I4
sS'free'
p307
I1
sS'interconnections'
p308
I4
sS'betterknown'
p309
I1
sS'nth'
p310
I12
sS'base'
p311
I4
sS'subsequences'
p312
I4
sS'steinhausjohnsontrotter'
p313
I4
sS'clique'
p314
I16
sS'approach'
p315
I5
sS'infix'
p316
I2
sS'generate'
p317
I8
sS'definition'
p318
I4
sS'pairs'
p319
I20
sS'mvt'
p320
I4
sS'waitingready'
p321
I1
sS'thread'
p322
I28
sS'computers'
p323
I1
sS'errortime'
p324
I1
sS'priorities'
p325
I1
sS'multiprocessing'
p326
I3
sS'creates'
p327
I4
sS'notationprefix'
p328
I2
sS'w'
p329
I1
sS'girvannewman'
p330
I4
sS'user'
p331
I43
sS'sharedreliability'
p332
I1
sS'major'
p333
I2
sS'already'
p334
I1
sS'characters'
p335
I5
sS'encoding'
p336
I4
sS'primary'
p337
I2
sS'calloc'
p338
I1
sS'intelligencesimulation'
p339
I1
sS'done'
p340
I1
sS'least'
p341
I4
sS'another'
p342
I10
sS'ftdisk'
p343
I8
sS'rightin'
p344
I2
sS'nodetraverse'
p345
I3
sS'service'
p346
I4
sS'nysiis'
p347
I4
sS'indeterminate'
p348
I4
sS'internal'
p349
I4
sS'approximately'
p350
I4
sS'needed'
p351
I5
sS'percentage'
p352
I4
sS'arenumber'
p353
I2
sS'semaphores'
p354
I1
sS'relationship'
p355
I2
sS'theability'
p356
I4
sS'floydwarshall'
p357
I1
sS'needle'
p358
I4
sS'tracking'
p359
I4
sS'deterministic'
p360
I3
sS'differentiate'
p361
I1
sS'distance'
p362
I56
sS'kind'
p363
I1
sS'b'
p364
I1
sS'determines'
p365
I4
sS'target'
p366
I9
sS'cyclic'
p367
I4
sS'double'
p368
I8
sS'approximations'
p369
I2
sS'database'
p370
I1
sS'tree'
p371
I77
sS'second'
p372
I19
sS'accumulatorsindex'
p373
I2
sS'idle'
p374
I12
sS'biconnected'
p375
I1
sS'kth'
p376
I4
sS'doubly'
p377
I1
sS'tarjans'
p378
I12
sS'knights'
p379
I4
sS'powers'
p380
I4
sS'debugging'
p381
I4
sS'karp'
p382
I4
sS'fashion'
p383
I4
sS'orderd'
p384
I1
sS'ram'
p385
I8
sS'randomly'
p386
I8
sS'maxcliquedyn'
p387
I8
sS'manner'
p388
I4
sS'kirkpatrickseidel'
p389
I4
sS'seem'
p390
I4
sS'null'
p391
I1
sS'seek'
p392
I1
sS'relatively'
p393
I4
sS'paths'
p394
I4
sS'colouring'
p395
I4
sS'btree'
p396
I1
sS'patterns'
p397
I8
sS'smooth'
p398
I8
sS'quicksort'
p399
I4
sS'elegance'
p400
I1
sS'oriented'
p401
I5
sS'also'
p402
I15
sS'fitting'
p403
I4
sS'without'
p404
I8
sS'build'
p405
I8
sS'indexed'
p406
I1
sS'completed'
p407
I8
sS'finding'
p408
I52
sS'object'
p409
I8
sS'reach'
p410
I1
sS'timestorage'
p411
I3
sS'metrics'
p412
I4
sS'most'
p413
I14
sS'involving'
p414
I1
sS'letter'
p415
I8
sS'comparisons'
p416
I11
sS'services'
p417
I9
sS'alpha'
p418
I4
sS'probabilistic'
p419
I4
sS'operationpop'
p420
I1
sS'windows'
p421
I26
sS'calculated'
p422
I2
sS'sometimes'
p423
I1
sS'flow'
p424
I16
sS'vertices'
p425
I9
sS'subtreeprocess'
p426
I2
sS'points'
p427
I53
sS'principle'
p428
I4
sS'hamming'
p429
I4
sS'caching'
p430
I4
sS'lpd'
p431
I1
sS'sum'
p432
I12
sS'heuristics'
p433
I5
sS'radix'
p434
I4
sS'prim'
p435
I1
sS'phenomenon'
p436
I4
sS'random'
p437
I2
sS'syntax'
p438
I3
sS'probingquadratic'
p439
I1
sS'registers'
p440
I5
sS'relation'
p441
I5
sS'solutions'
p442
I10
sS'fuzzy'
p443
I12
sS'lexicographic'
p444
I4
sS'next'
p445
I9
sS'find'
p446
I58
sS'backtracking'
p447
I6
sS'make'
p448
I10
sS'completion'
p449
I5
sS'cell'
p450
I2
sS'layout'
p451
I8
sS'parameters'
p452
I5
sS'implementation'
p453
I6
sS'menu'
p454
I1
sS'explain'
p455
I272
sS'cpu'
p456
I10
sS'distributed'
p457
I8
sS'topological'
p458
I4
sS'discretionary'
p459
I1
sS'bfs'
p460
I8
sS'utilization'
p461
I5
sS'indexingencoding'
p462
I1
sS'rich'
p463
I4
sS'factor'
p464
I5
sS'folder'
p465
I16
sS'do'
p466
I559
sS'explorations'
p467
I1
sS'dm'
p468
I4
sS'notation'
p469
I8
sS'trees'
p470
I11
sS'interprocess'
p471
I1
sS'traversalinorder'
p472
I1
sS'daemons'
p473
I2
sS'reconstruct'
p474
I4
sS'mutual'
p475
I8
sS'compiler'
p476
I2
sS'runs'
p477
I5
sS'problemevent'
p478
I1
sS'fields'
p479
I7
sS'bytes'
p480
I1
sS'method'
p481
I52
sS'systemsdistributed'
p482
I1
sS'architecture'
p483
I2
sS'activity'
p484
I1
sS'bak'
p485
I1
sS'giantstep'
p486
I4
sS'traverse'
p487
I16
sS'set'
p488
I65
sS'reference'
p489
I4
sS'intelligence'
p490
I1
sS'detection'
p491
I4
sS'see'
p492
I8
sS'migration'
p493
I8
sS'methodmodular'
p494
I2
sS'best'
p495
I69
sS'techniques'
p496
I9
sS'euclids'
p497
I10
sS'capacity'
p498
I5
sS'visiting'
p499
I1
sS'convex'
p500
I24
sS'artificial'
p501
I1
sS'case'
p502
I170
sS'score'
p503
I4
sS'cantorzassenhaus'
p504
I4
sS'edmondsedmondskara'
p505
I4
sS'simplest'
p506
I2
sS'subarray'
p507
I4
sS'sorts'
p508
I8
sS'operationpeek'
p509
I1
sS'tolerance'
p510
I8
sS'knowing'
p511
I8
sS'we'
p512
I6
sS'terms'
p513
I10
sS'creating'
p514
I2
sS'nature'
p515
I4
sS'generalised'
p516
I1
sS'interfaces'
p517
I4
sS'cut'
p518
I4
sS'wastage'
p519
I4
sS'interface'
p520
I4
sS'remaining'
p521
I4
sS'improve'
p522
I4
sS'both'
p523
I4
sS'c'
p524
I9
sS'paradigms'
p525
I3
sS'reverse'
p526
I1
sS'fault'
p527
I9
sS'polygonal'
p528
I4
sS'amortized'
p529
I8
sS'merging'
p530
I2
sS'improves'
p531
I8
sS'registersstack'
p532
I2
sS'logic'
p533
I9
sS'exceeds'
p534
I4
sS'operating'
p535
I43
sS'finds'
p536
I40
sS'point'
p537
I38
sS'reasons'
p538
I4
sS'asymptotically'
p539
I4
sS'sweep'
p540
I8
sS'height'
p541
I9
sS'polynomial'
p542
I25
sS'managementstorage'
p543
I1
sS'indefinite'
p544
I4
sS'christofides'
p545
I8
sS'described'
p546
I4
sS'puts'
p547
I8
sS'basis'
p548
I8
sS'simplification'
p549
I4
sS'create'
p550
I24
sS'traversals'
p551
I1
sS'three'
p552
I4
sS'been'
p553
I2
sS'strategy'
p554
I4
sS'extraction'
p555
I4
sS'reduction'
p556
I2
sS'initializedtransferring'
p557
I1
sS'basic'
p558
I13
sS'treeat'
p559
I1
sS'pi'
p560
I4
sS'empty'
p561
I1
sS'files'
p562
I2
sS'obtained'
p563
I4
sS'graphical'
p564
I1
sS'sending'
p565
I4
sS'child'
p566
I5
sS'krauss'
p567
I4
sS'subtrees'
p568
I9
sS'wildcat'
p569
I4
sS'applied'
p570
I2
sS'sdks'
p571
I1
sS'reciprocal'
p572
I4
sS'daitchmokotoff'
p573
I4
sS'gilbertjohnsonkeerthi'
p574
I4
sS'straight'
p575
I5
sS'batch'
p576
I1
sS'n'
p577
I29
sS'euclidean'
p578
I16
sS'substrings'
p579
I4
sS'optimization'
p580
I10
sS'compactness'
p581
I2
sS'risch'
p582
I4
sS'error'
p583
I1
sS'property'
p584
I1
sS'k'
p585
I4
sS'procedure'
p586
I5
sS'malloc'
p587
I2
sS'approximate'
p588
I11
sS'implementationindexing'
p589
I1
sS'is'
p590
I846
sS'borweins'
p591
I4
sS'it'
p592
I80
sS'analysisgraphicsartificial'
p593
I1
sS'cant'
p594
I1
sS'itself'
p595
I9
sS'cone'
p596
I4
sS'io'
p597
I6
sS'in'
p598
I356
sS'chudnovsky'
p599
I4
sS'componets'
p600
I4
sS'systemdatabase'
p601
I2
sS'ie'
p602
I10
sS'if'
p603
I26
sS'ruperts'
p604
I4
sS'integrates'
p605
I4
sS'constrained'
p606
I4
sS'because'
p607
I4
sS'processesuser'
p608
I1
sS'alevel'
p609
I1
sS'perform'
p610
I1
sS'recursion'
p611
I17
sS'trashing'
p612
I1
sS'linked'
p613
I27
sS'complex'
p614
I4
sS'bruteforce'
p615
I4
sS'widely'
p616
I4
sS'avoids'
p617
I1
sS'filtered'
p618
I4
sS'interpolation'
p619
I20
sS'companiesaccess'
p620
I1
sS'meets'
p621
I1
sS'used'
p622
I71
sS'temporary'
p623
I1
sS'messages'
p624
I2
sS'numerical'
p625
I5
sS'controlidentification'
p626
I1
sS'monolithic'
p627
I13
sS'violationprotection'
p628
I1
sS'triangulation'
p629
I1
sS'uses'
p630
I6
sS'purpose'
p631
I2
sS'ownership'
p632
I4
sS'takaoka'
p633
I4
sS'elapsed'
p634
I8
sS'dissimilarity'
p635
I4
sS'stack'
p636
I18
sS'cycle'
p637
I20
sS'lower'
p638
I4
sS'universitiesaccessing'
p639
I1
sS'kargers'
p640
I4
sS'programs'
p641
I12
sS'underlies'
p642
I1
sS'designoperating'
p643
I2
sS'memoization'
p644
I4
sS'analysis'
p645
I5
sS'solids'
p646
I4
sS'client'
p647
I1
sS'greatest'
p648
I4
sS'simulated'
p649
I1
sS'the'
p650
I1011
sS'paradigm'
p651
I2
sS'ubuntu'
p652
I16
sS'left'
p653
I11
sS'faugere'
p654
I4
sS'bronkerbosch'
p655
I8
sS'marshalling'
p656
I4
sS'examining'
p657
I1
sS'networks'
p658
I1
sS'instructionprivileged'
p659
I1
sS'assigned'
p660
I4
sS'identify'
p661
I6
sS'yes'
p662
I2
sS'huffman'
p663
I3
sS'alignment'
p664
I12
sS'projection'
p665
I4
sS'loading'
p666
I1
sS'substring'
p667
I30
sS'notationpostfix'
p668
I3
sS'areinfix'
p669
I1
sS'belongs'
p670
I4
sS'location'
p671
I4
sS'input'
p672
I13
sS'has'
p673
I23
sS'transformation'
p674
I8
sS'reuse'
p675
I1
sS'errorarithmetic'
p676
I1
sS'possible'
p677
I12
sS'rdbmsnetwork'
p678
I1
sS'dameraulaenshtein'
p679
I4
sS'game'
p680
I5
sS'descending'
p681
I2
sS'integer'
p682
I12
sS'unique'
p683
I3
sS'warnsdorffs'
p684
I4
sS'sorting'
p685
I45
sS'd'
p686
I5
sS'follows'
p687
I1
sS'signal'
p688
I1
sS'processeconomyutilization'
p689
I1
sS'shapes'
p690
I8
sS'collect'
p691
I1
sS'steps'
p692
I8
sS'sparse'
p693
I7
sS'rearrangement'
p694
I1
sS'security'
p695
I4
sS'starvation'
p696
I4
sS'variant'
p697
I8
sS'essential'
p698
I5
sS'mathematical'
p699
I13
sS'right'
p700
I13
sS'often'
p701
I4
sS'plouffe'
p702
I4
sS'some'
p703
I33
sS'back'
p704
I16
sS'understood'
p705
I1
sS'examples'
p706
I12
sS'operationempty'
p707
I1
sS'loses'
p708
I1
sS'separately'
p709
I4
sS'listsapplications'
p710
I2
sS'represent'
p711
I14
sS'nondeterministic'
p712
I2
sS'for'
p713
I274
sS'ukkonens'
p714
I4
sS'decision'
p715
I1
sS'cosets'
p716
I4
sS'galegaleshapely'
p717
I4
sS'everything'
p718
I8
sS'allocate'
p719
I2
sS'exceededmemory'
p720
I1
sS'minimal'
p721
I8
sS'core'
p722
I4
sS'shaker'
p723
I4
sS'kruskal'
p724
I1
sS'processing'
p725
I8
sS'use'
p726
I14
sS'bk'
p727
I4
sS'step'
p728
I5
sS'shifting'
p729
I4
sS'post'
p730
I1
sS'super'
p731
I4
sS'properties'
p732
I3
sS'takes'
p733
I13
sS'unused'
p734
I1
sS'works'
p735
I1
sS'o'
p736
I1
sS'constituting'
p737
I1
sS'plus'
p738
I4
sS'unsorted'
p739
I4
sS'followstraverse'
p740
I2
sS'calculating'
p741
I8
sS'runtime'
p742
I2
sS'block'
p743
I5
sS'wildcards'
p744
I4
sS'garbage'
p745
I1
sS'samplesort'
p746
I4
sS'into'
p747
I8
sS'within'
p748
I3
sS'bound'
p749
I1
sS'hopcroft'
p750
I4
sS'cyclefinding'
p751
I4
sS'appropriate'
p752
I3
sS'pointergeneral'
p753
I1
sS'frames'
p754
I2
sS'proportional'
p755
I4
sS'exitinorderleft'
p756
I2
sS'shsh1sh21'
p757
I4
sS'methods'
p758
I2
sS'unambiguous'
p759
I5
sS'arepush'
p760
I1
sS'2dimensional'
p761
I4
sS'ditchmokotoff'
p762
I4
sS'retrieving'
p763
I2
sS'spending'
p764
I5
sS'measured'
p765
I4
sS'support'
p766
I6
sS'initial'
p767
I1
sS'available'
p768
I3
sS'transform'
p769
I8
sS'long'
p770
I4
sS'class'
p771
I16
sS'ordered'
p772
I5
sS'capacitance'
p773
I4
sS'pronunciation'
p774
I5
sS'way'
p775
I20
sS'forward'
p776
I4
sS'storagesource'
p777
I4
sS'fordfulkerson'
p778
I8
sS'was'
p779
I4
sS'etc'
p780
I2
sS'microkernel'
p781
I5
sS'socketspipesshared'
p782
I1
sS'form'
p783
I12
sS'criteria'
p784
I3
sS'randomised'
p785
I9
sS'searching'
p786
I4
sS'link'
p787
I2
sS'repeatedly'
p788
I7
sS'heap'
p789
I7
sS'fastest'
p790
I1
sS'line'
p791
I16
sS'dameraulevenshtein'
p792
I4
sS'exhaustive'
p793
I9
sS'directed'
p794
I28
sS'zhu'
p795
I4
sS'arrays'
p796
I1
sS'access'
p797
I4
sS'attached'
p798
I2
sS'maximum'
p799
I32
sS'until'
p800
I8
sS'paging'
p801
I2
sS'exploration'
p802
I1
sS'more'
p803
I20
sS'optimisation'
p804
I3
sS'called'
p805
I66
sS'jarowinkler'
p806
I4
sS'storing'
p807
I3
sS'guesses'
p808
I1
sS'moore'
p809
I8
sS'classic'
p810
I8
sS'trie'
p811
I4
sS'm'
p812
I1
sS'congruence'
p813
I4
sS'singly'
p814
I1
sS'single'
p815
I4
sS'johnsons'
p816
I4
sS'sollin'
p817
I1
sS'ship'
p818
I1
sS'check'
p819
I5
sS'triangles'
p820
I8
sS'defines'
p821
I1
sS'ancestors'
p822
I8
sS'polygon'
p823
I16
sS'no'
p824
I23
sS'when'
p825
I47
sS'rewriting'
p826
I4
sS'application'
p827
I5
sS'test'
p828
I1
sS'graphhierarchical'
p829
I2
sS'nt'
p830
I30
sS'arithmetic'
p831
I8
sS'node'
p832
I37
sS'draw'
p833
I3
sS'elements'
p834
I29
sS'superposition'
p835
I1
sS'sling'
p836
I4
sS'jaccard'
p837
I4
sS'preceding'
p838
I8
sS'problems'
p839
I21
sS'servercache'
p840
I2
sS'iterators'
p841
I4
sS'concurrent'
p842
I4
sS'newtonraphson'
p843
I4
sS'dram'
p844
I4
sS'structure'
p845
I12
sS'hashing'
p846
I14
sS'soundex'
p847
I24
sS'independently'
p848
I1
sS'faster'
p849
I1
sS'algorithm'
p850
I785
sS'together'
p851
I2
sS'microsoft'
p852
I4
sS'eliminate'
p853
I4
sS'depth'
p854
I5
sS'weights'
p855
I4
sS'time'
p856
I102
sS'push'
p857
I4
sS'n2'
p858
I2
sS'metaphone'
p859
I12
sS'stacks'
p860
I4
sS'once'
p861
I1
sS'breadth'
p862
I6
sS'logarithms'
p863
I12
sS'concept'
p864
I9
sS'chain'
p865
I8
sS'oss'
p866
I1
sS'global'
p867
I4
sS'results'
p868
I1
sS'integration'
p869
I4
sS'trigram'
p870
I1
sS'manager'
p871
I2
sS'computation'
p872
I12
sS'go'
p873
I1
sS'query'
p874
I4
sS'layers'
p875
I1
sS'inverse'
p876
I12
sS'graph'
p877
I121
sS'technique'
p878
I13
sS'young'
p879
I4
sS'0'
p880
I5
sS'deallocation'
p881
I1
sS'stable'
p882
I8
sS'undirected'
p883
I16
sS'resources'
p884
I3
sS'microkernelexample'
p885
I4
sS'division'
p886
I16
sS'largein'
p887
I1
sS'string'
p888
I21
sS'advantage'
p889
I5
sS'unstructured'
p890
I4
sS'enqueue'
p891
I1
sS'bowyerwatson'
p892
I4
sS'knapsack'
p893
I1
sS'bounding'
p894
I8
sS'exact'
p895
I7
sS'swapping'
p896
I15
sS'solves'
p897
I12
sS'level'
p898
I16
sS'positions'
p899
I4
sS'processeconomy'
p900
I1
sS'improvedprovide'
p901
I1
sS'discrete'
p902
I32
sS'transposing'
p903
I4
sS'polling'
p904
I4
sS'section'
p905
I8
sS'quick'
p906
I8
sS'retrievedfunctions'
p907
I1
sS'round'
p908
I4
sS'methodmethod'
p909
I1
sS'smaller'
p910
I4
sS'stackevaluation'
p911
I1
sS'be'
p912
I50
sS'repetitive'
p913
I1
sS'matrices'
p914
I1
sS'cost'
p915
I4
sS'insertion'
p916
I12
sS'sublinear'
p917
I8
sS'initialized'
p918
I1
sS'hashingopen'
p919
I1
sS'spaghetti'
p920
I4
sS'spectral'
p921
I8
sS'index'
p922
I14
sS'postman'
p923
I4
sS'cliques'
p924
I8
sS'depthfirst'
p925
I4
sS'uniform'
p926
I8
sS'current'
p927
I8
sS'waiting'
p928
I4
sS'sequential'
p929
I4
sS'turnaround'
p930
I4
sS'selecting'
p931
I3
sS'subtreetraverse'
p932
I6
sS'degree'
p933
I22
sS'kangaroo'
p934
I4
sS'v'
p935
I1
sS'following'
p936
I2
sS'objects'
p937
I4
sS'address'
p938
I7
sS'recomputing'
p939
I1
sS'wait'
p940
I5
sS'box'
p941
I8
sS'preorder'
p942
I7
sS'convert'
p943
I6
sS'dividing'
p944
I4
sS'polynomials'
p945
I17
sS'chans'
p946
I4
sS'functiontruncation'
p947
I2
sS'queue'
p948
I14
sS'simultaneous'
p949
I1
sS'throughput'
p950
I4
sS'usually'
p951
I9
sS'implement'
p952
I5
sS'makes'
p953
I4
sS'writes'
p954
I4
sS'involves'
p955
I1
sS'simplex'
p956
I8
sS'ipc'
p957
I3
sS'named'
p958
I1
sS'tasks'
p959
I7
sS'useful'
p960
I12
sS'extra'
p961
I1
sS'logical'
p962
I2
sS'knuthbendix'
p963
I4
sS'decrease'
p964
I1
sS'names'
p965
I8
sS'traversing'
p966
I27
sS'cloud'
p967
I4
sS'heapnsort'
p968
I4
sS'httpd'
p969
I1
sS'undergone'
p970
I4
sS'from'
p971
I44
sS'positive'
p972
I16
sS'requesttimingparent'
p973
I1
sS'scan'
p974
I3
sS'visit'
p975
I1
sS'by'
p976
I371
sS'managerfile'
p977
I2
sS'kasanes'
p978
I4
sS'methodfolding'
p979
I2
sS'memory'
p980
I23
sS'themselves'
p981
I4
sS'diagrams'
p982
I1
sS'sort'
p983
I220
sS'dinics'
p984
I4
sS'sharing'
p985
I2
sS'followsindexingencoding'
p986
I1
sS'integers'
p987
I8
sS'towers'
p988
I1
sS'outputs'
p989
I4
sS'probingdouble'
p990
I1
sS'rabbit'
p991
I2
sS'pseudorandomly'
p992
I4
sS'quickhull'
p993
I4
sS'cases'
p994
I1
sS'cardinality'
p995
I4
sS'effort'
p996
I3
sS'logarithm'
p997
I16
sS'states'
p998
I3
sS'delaunay'
p999
I9
sS'breadthfirst'
p1000
I8
sS'collision'
p1001
I10
sS'this'
p1002
I39
sS'originally'
p1003
I4
sS'sounded'
p1004
I4
sS'modified'
p1005
I8
sS'radon'
p1006
I4
sS'values'
p1007
I4
sS'can'
p1008
I26
sS'grbner'
p1009
I8
sS'making'
p1010
I1
sS'proof'
p1011
I1
sS'control'
p1012
I9
sS'nearest'
p1013
I12
sS'links'
p1014
I1
sS'abelian'
p1015
I4
sS'calculation'
p1016
I3
sS'gameword'
p1017
I1
sS'permutations'
p1018
I4
sS'sample'
p1019
I4
sS'problemsolving'
p1020
I4
sS'fortunes'
p1021
I4
sS'incremental'
p1022
I4
sS'performed'
p1023
I14
sS'employs'
p1024
I4
sS'spanning'
p1025
I17
sS'simulation'
p1026
I2
sS'occur'
p1027
I3
sS'elementseg'
p1028
I1
sS'gcd'
p1029
I12
sS'locates'
p1030
I4
sS'divided'
p1031
I1
sS'means'
p1032
I1
sS'1'
p1033
I10
sS'subroutines'
p1034
I4
sS'quickselect'
p1035
I4
sS'optimal'
p1036
I9
sS'3dimensional'
p1037
I4
sS'circular'
p1038
I5
sS'inputs'
p1039
I8
sS'cocktail'
p1040
I4
sS'information'
p1041
I2
sS'may'
p1042
I29
sS'max'
p1043
I4
sS'collection'
p1044
I5
sS'applications'
p1045
I24
sS'gospers'
p1046
I4
sS'designed'
p1047
I1
sS'multiplication'
p1048
I32
sS'such'
p1049
I11
sS'spelling'
p1050
I1
sS'data'
p1051
I75
sS'recursive'
p1052
I26
sS'transitive'
p1053
I8
sS'natural'
p1054
I1
sS'light'
p1055
I1
sS'explicit'
p1056
I4
sS'treearithmetic'
p1057
I2
sS'processor'
p1058
I8
sS'switch'
p1059
I12
sS'sh'
p1060
I4
sS'serial'
p1061
I3
sS'bentleyottmann'
p1062
I8
sS'representation'
p1063
I1
sS'algorithmhow'
p1064
I1
sS'p'
p1065
I8
sS'bipartite'
p1066
I4
sS'se'
p1067
I4
sS'typical'
p1068
I3
sS'including'
p1069
I12
sS'statistical'
p1070
I1
sS'during'
p1071
I3
sS'pollards'
p1072
I4
sS'pointer'
p1073
I3
sS'perfect'
p1074
I8
sS'write'
p1075
I3
sS'subtreevisit'
p1076
I2
sS'group'
p1077
I8
sS'exclusion'
p1078
I8
sS'forms'
p1079
I1
sS'ramsecondary'
p1080
I1
sS'deepening'
p1081
I4
sS'degrees'
p1082
I4
sS'systemsmultiprogrammed'
p1083
I2
sS'listing'
p1084
I4
sS'suspension'
p1085
I2
sS'main'
p1086
I12
sS'spreading'
p1087
I1
sS'closure'
p1088
I8
sS'non'
p1089
I5
sS'oneaccording'
p1090
I1
sS'chaining'
p1091
I2
sS'articulation'
p1092
I2
sS'matches'
p1093
I4
sS'indexing'
p1094
I17
sS'conquer'
p1095
I9
sS'asymmetrical'
p1096
I1
sS'half'
p1097
I4
sS'not'
p1098
I16
sS'sorted'
p1099
I30
sS'ahocorasick'
p1100
I4
sS'matched'
p1101
I4
sS'jump'
p1102
I12
sS'term'
p1103
I4
sS'name'
p1104
I5
sS'edit'
p1105
I4
sS'meetinthemiddle'
p1106
I4
sS'sharedload'
p1107
I1
sS'synchronize'
p1108
I4
sS'morris'
p1109
I4
sS'magnitude'
p1110
I4
sS'mode'
p1111
I12
sS'processprocesses'
p1112
I4
sS'phonetic'
p1113
I30
sS'subset'
p1114
I4
sS'h0'
p1115
I4
sS'weighted'
p1116
I16
sS'retrieve'
p1117
I2
sS'triangulations'
p1118
I12
sS'doing'
p1119
I4
sS'eg'
p1120
I17
sS'hypergeometric'
p1121
I8
sS'related'
p1122
I5
sS'static'
p1123
I6
sS'measure'
p1124
I17
sS'salesman'
p1125
I8
sS'monitors'
p1126
I2
sS'special'
p1127
I9
sS'out'
p1128
I14
sS'category'
p1129
I1
sS'matrix'
p1130
I2
sS'space'
p1131
I36
sS'rounding'
p1132
I4
sS'spawning'
p1133
I8
sS'multiprogramming'
p1134
I1
sS'include'
p1135
I10
sS'contained'
p1136
I1
sS'performs'
p1137
I1
sS'unavailablebounds'
p1138
I1
sS'formula'
p1139
I4
sS'squares'
p1140
I8
sS'induction'
p1141
I1
sS'common'
p1142
I29
sS'parenthesisrecursion'
p1143
I1
sS'clustering'
p1144
I1
sS'theory'
p1145
I6
sS'hull'
p1146
I24
sS'mechanisms'
p1147
I2
sS'greedy'
p1148
I4
sS'dependencies'
p1149
I4
sS'advantages'
p1150
I2
sS'multilinked'
p1151
I2
sS'remainder'
p1152
I4
sS'dispatcher'
p1153
I8
sS'shortest'
p1154
I28
sS'nthroot'
p1155
I4
sS'cycles'
p1156
I4
sS'geometry'
p1157
I4
sS'determining'
p1158
I16
sS'could'
p1159
I2
sS'lowestcost'
p1160
I4
sS'programming'
p1161
I24
sS'times'
p1162
I9
sS'turn'
p1163
I4
sS'length'
p1164
I8
sS'plane'
p1165
I16
sS'traversalpostorder'
p1166
I1
sS'hence'
p1167
I1
sS'first'
p1168
I15
sS'passedlocal'
p1169
I1
sS'twodimensional'
p1170
I8
sS'suffix'
p1171
I4
sS'guessing'
p1172
I3
sS'authenticationauditingresource'
p1173
I1
sS'variables'
p1174
I1
sS'stableo1'
p1175
I1
sS'tableaux'
p1176
I4
sS'one'
p1177
I38
sS'randomized'
p1178
I8
sS'fast'
p1179
I20
sS'message'
p1180
I1
sS'precisely'
p1181
I1
sS'open'
p1182
I1
sS'size'
p1183
I19
sS'algorithmprims'
p1184
I1
sS'1p'
p1185
I4
sS'given'
p1186
I32
sS'management'
p1187
I5
sS'ordering'
p1188
I4
sS'pells'
p1189
I4
sS'crossings'
p1190
I4
sS'system'
p1191
I46
sS'response'
p1192
I4
sS'priority'
p1193
I2
sS'their'
p1194
I19
sS'returns'
p1195
I1
sS'2'
p1196
I4
sS'processesoperating'
p1197
I1
sS'efficiently'
p1198
I16
sS'structures'
p1199
I20
sS'shell'
p1200
I4
sS'inefficient'
p1201
I4
sS'that'
p1202
I122
sS'algorithmsapproximation'
p1203
I1
sS'explanation'
p1204
I1
sS'squareroot'
p1205
I8
sS'lists'
p1206
I13
sS'printerreal'
p1207
I1
sS'manipulation'
p1208
I3
sS'on2'
p1209
I36
sS'correctness'
p1210
I1
sS'operates'
p1211
I4
sS'representing'
p1212
I2
sS'than'
p1213
I7
sS'12'
p1214
I4
sS'14'
p1215
I1
sS'pointers'
p1216
I3
sS'thrashing'
p1217
I9
sS'submitted'
p1218
I9
sS'subsequence'
p1219
I20
sS'multithreaded'
p1220
I1
sS'were'
p1221
I1
sS'accessed'
p1222
I1
sS'twos'
p1223
I4
sS'decompose'
p1224
I4
sS'are'
p1225
I175
sS'and'
p1226
I210
sS'lowest'
p1227
I8
sS'addressing'
p1228
I2
sS'traversallevelorder'
p1229
I1
sS'false'
p1230
I4
sS'lines'
p1231
I4
sS'dynamically'
p1232
I1
sS'few'
p1233
I4
sS'tabu'
p1234
I1
sS'structuresnetwork'
p1235
I2
sS'have'
p1236
I17
sS'need'
p1237
I2
sS'element'
p1238
I5
sS'occupied'
p1239
I1
sS'any'
p1240
I26
sS'viewed'
p1241
I1
sS'computationally'
p1242
I4
sS'min'
p1243
I8
sS'efficient'
p1244
I11
sS'annealing'
p1245
I1
sS'instance'
p1246
I2
sS'pivotal'
p1247
I1
sS'which'
p1248
I98
sS'online'
p1249
I4
sS'performance'
p1250
I93
sS'calculus'
p1251
I12
sS'begin'
p1252
I4
sS'multiple'
p1253
I8
sS'normal'
p1254
I1
sS'beta'
p1255
I4
sS'connected'
p1256
I12
sS'but'
p1257
I5
sS'definitions'
p1258
I1
sS'pair'
p1259
I16
sS'device'
p1260
I20
sS'comparison'
p1261
I8
sS'inserted'
p1262
I1
sS'pages'
p1263
I4
sS'swapsadaptive'
p1264
I1
sS'considered'
p1265
I5
sS'average'
p1266
I40
sS'request'
p1267
I6
sS'graphs'
p1268
I8
sS'salz'
p1269
I4
sS'construction'
p1270
I2
sS'selection'
p1271
I65
sS'schensted'
p1272
I4
sS'text'
p1273
I5
sS'merit'
p1274
I1
sS'cipollas'
p1275
I8
sS'notations'
p1276
I8
sS'kits'
p1277
I1
sS'shoe'
p1278
I4
sS'determined'
p1279
I2
sS'principal'
p1280
I8
sS'sh1'
p1281
I4
sS'coloring'
p1282
I4
sS'based'
p1283
I13
sS'true'
p1284
I5
sS'cache'
p1285
I5
sS'managementinput'
p1286
I1
sS'state'
p1287
I22
sS'terminal'
p1288
I6
sS'only'
p1289
I14
sS'smallest'
p1290
I16
sS'marriage'
p1291
I4
sS'local'
p1292
I9
sS'algorithminorderrootifrootnull'
p1293
I2
sS'achieve'
p1294
I1
sS'karatsuba'
p1295
I8
sS'info'
p1296
I4
sS'introsoft'
p1297
I4
sS'hungarian'
p1298
I4
sS'get'
p1299
I5
sS'sss'
p1300
I4
sS'beam'
p1301
I8
sS'outputsensitive'
p1302
I4
sS'cannot'
p1303
I5
sS'nearly'
p1304
I1
sS'words'
p1305
I9
sS'progress'
p1306
I1
sS'areas'
p1307
I5
sS'prime'
p1308
I8
sS'processes'
p1309
I25
sS'resource'
p1310
I5
sS'h'
p1311
I8
sS'interventionparent'
p1312
I1
sS'optimally'
p1313
I4
sS'inorder'
p1314
I1
sS'forcebased'
p1315
I4
sS'processed'
p1316
I2
sS'through'
p1317
I1
sS'fixed'
p1318
I1
sS'where'
p1319
I15
sS'kernel'
p1320
I46
sS'modulo'
p1321
I4
sS'computed'
p1322
I1
sS'burst'
p1323
I8
sS'adaptative'
p1324
I4
sS'up'
p1325
I4
sS'relative'
p1326
I12
sS'computes'
p1327
I20
sS'computer'
p1328
I6
sS'primality'
p1329
I4
sS'drawing'
p1330
I12
sS'page'
p1331
I36
sS'closer'
p1332
I3
sS'detect'
p1333
I4
sS'ways'
p1334
I6
sS'pattern'
p1335
I4
sS'segment'
p1336
I4
sS'increased'
p1337
I3
sS'boundaries'
p1338
I4
sS'datastructure'
p1339
I2
sS'invokes'
p1340
I4
sS'closed'
p1341
I1
sS'between'
p1342
I80
sS'chews'
p1343
I4
sS'geometric'
p1344
I5
sS'backwardif'
p1345
I1
sS'across'
p1346
I5
sS'deletions'
p1347
I1
sS'ends'
p1348
I4
sS'various'
p1349
I8
sS'jobs'
p1350
I5
sS'ability'
p1351
I1
sS'parent'
p1352
I1
sS'notion'
p1353
I4
sS'efficiency'
p1354
I35
sS'multiplies'
p1355
I4
sS'probing'
p1356
I4
sS'disconnect'
p1357
I1
sS'comb'
p1358
I4
sS'come'
p1359
I1
sS'problem'
p1360
I62
sS'originates'
p1361
I4
sS'implementing'
p1362
I6
sS'many'
p1363
I12
sS'according'
p1364
I1
sS'deduction'
p1365
I1
sS'voronoi'
p1366
I9
sS'tour'
p1367
I4
sS'item'
p1368
I12
sS'delete'
p1369
I2
sS'expression'
p1370
I8
sS'boyer'
p1371
I8
sS'among'
p1372
I1
sS'solving'
p1373
I9
sS'semaphorescounting'
p1374
I1
sS'key'
p1375
I6
sS'removal'
p1376
I1
sS'walk'
p1377
I4
sS'packaging'
p1378
I4
sS'iterations'
p1379
I9
sS'lagrange'
p1380
I8
sS'associated'
p1381
I2
sS'allocated'
p1382
I2
sS'writing'
p1383
I1
sS'squaring'
p1384
I4
sS'combines'
p1385
I4
sS'rdbms'
p1386
I2
sS'challenging'
p1387
I1
sS'computing'
p1388
I51
sS'toddcoxeter'
p1389
I4
sS'defined'
p1390
I5
sS'genetic'
p1391
I1
sS'followsvisit'
p1392
I2
sS'define'
p1393
I282
sS'controlled'
p1394
I1
sS'layerkernelsubsystems'
p1395
I1
sS'route'
p1396
I5
sS'sufficient'
p1397
I8
sS'traversal'
p1398
I10
sS'neighbour'
p1399
I8
sS'external'
p1400
I1
sS'graphics'
p1401
I1
sS'costsearch'
p1402
I4
sS'an'
p1403
I247
sS'those'
p1404
I8
sS'runnin'
p1405
I1
sS'multi'
p1406
I1
sS'turtles'
p1407
I4
sS'these'
p1408
I1
sS'align'
p1409
I4
sS'evaluationsorting'
p1410
I2
sS'engineering'
p1411
I4
sS'value'
p1412
I27
sS'choices'
p1413
I4
sS'will'
p1414
I11
sS'residence'
p1415
I2
sS'versus'
p1416
I1
sS'mutant'
p1417
I8
sS'goodness'
p1418
I1
sS'almost'
p1419
I1
sS'relabel'
p1420
I4
sS'metric'
p1421
I4
sS'designs'
p1422
I4
sS'surface'
p1423
I8
sS'equal'
p1424
I4
sS'hardware'
p1425
I9
sS'dual'
p1426
I1
sS'vw'
p1427
I1
sS'failureinvalid'
p1428
I1
sS'aestheticallypleasing'
p1429
I4
sS'greater'
p1430
I1
sS'binary'
p1431
I141
sS'different'
p1432
I21
sS'floyds'
p1433
I4
sS'generic'
p1434
I1
sS'connection'
p1435
I16
sS'same'
p1436
I8
sS'memorysignals'
p1437
I1
sS'member'
p1438
I2
sS'python'
p1439
I4
sS'parts'
p1440
I4
sS'arguments'
p1441
I1
sS'largest'
p1442
I1
sS'knuth'
p1443
I4
sS'gets'
p1444
I3
sS'difficult'
p1445
I1
sS'searchdepth'
p1446
I1
sS'extended'
p1447
I8
sS'booths'
p1448
I8
sS'closest'
p1449
I4
sS'disadvantages'
p1450
I1
sS'heapsort'
p1451
I4
sS'forcedirected'
p1452
I4
sS'misuseoperator'
p1453
I1
sS'allocation'
p1454
I1
sS'running'
p1455
I4
sS'systemstatistical'
p1456
I1
sS'entanglement'
p1457
I1
sS'threaded'
p1458
I3
sS'triangularisation'
p1459
I4
sS'well'
p1460
I5
sS'subtree'
p1461
I6
sS'rabinkarp'
p1462
I4
sS'costs'
p1463
I4
sS'solve'
p1464
I13
sS'components'
p1465
I4
sS'english'
p1466
I8
sS'termination'
p1467
I2
sS'model'
p1468
I8
sS'warnsdorfs'
p1469
I4
sS'usual'
p1470
I4
sS'heaps'
p1471
I4
sS'stores'
p1472
I8
sS'less'
p1473
I2
sS'being'
p1474
I4
sS'hybrid'
p1475
I5
sS'accurate'
p1476
I1
sS'executive'
p1477
I8
sS'modifiable'
p1478
I8
sS'resolution'
p1479
I2
sS'actions'
p1480
I2
sS'front'
p1481
I11
sS'select'
p1482
I4
sS'bytescalloc'
p1483
I1
sS'aspect'
p1484
I4
sS'polish'
p1485
I2
sS'speed'
p1486
I7
sS'reduced'
p1487
I2
sS'heuristic'
p1488
I11
sS'qnxrealtime'
p1489
I4
sS'except'
p1490
I1
sS'simple'
p1491
I13
sS'add'
p1492
I4
sS'constant'
p1493
I9
sS'intersection'
p1494
I8
sS'real'
p1495
I16
sS'tests'
p1496
I4
sS'aspects'
p1497
I4
sS'reexamination'
p1498
I4
sS'lineartime'
p1499
I4
sS'repetitions'
p1500
I1
sS'sums'
p1501
I4
sS'execute'
p1502
I8
sS'processwaiting'
p1503
I1
sS'singlylinked'
p1504
I3
sS'early'
p1505
I1
sS'grid'
p1506
I4
sS'using'
p1507
I27
sS'part'
p1508
I22
sS'execution'
p1509
I7
sS'handlingio'
p1510
I1
sS'insert'
p1511
I5
sS'like'
p1512
I2
sS'identifying'
p1513
I2
sS'reduces'
p1514
I8
sS'server'
p1515
I2
sS'linkedlistcpp'
p1516
I1
sS'highspeed'
p1517
I1
sS'hanoireversing'
p1518
I1
sS'multiplicative'
p1519
I8
sS'output'
p1520
I9
sS'tower'
p1521
I1
sS'inter'
p1522
I1
sS'redirector'
p1523
I2
sS'specifies'
p1524
I1
sS'rightskewed'
p1525
I2
sS'baileyborwein'
p1526
I4
sS'sequence'
p1527
I49
sS'sequences'
p1528
I32
sS'processorsvirtual'
p1529
I4
sS'library'
p1530
I4
sS'growth'
p1531
I29
sS'schnhagestrassen'
p1532
I4
sS'table'
p1533
I7
sS'small'
p1534
I8
sS'managementdevice'
p1535
I1
sS'matching'
p1536
I20
sS'stringbalanced'
p1537
I1
sS'happens'
p1538
I1
sS'leaf'
p1539
I1
sS'dimensions'
p1540
I4
sS'merge'
p1541
I17
sS'leak'
p1542
I2
sS'avoid'
p1543
I4
sS'extensively'
p1544
I2
sS'ddks'
p1545
I3
sS'hirschberhs'
p1546
I4
sS'critical'
p1547
I4
sS'provides'
p1548
I17
sS'maintenanceswapping'
p1549
I1
sS'o1'
p1550
I20
sS'limitations'
p1551
I1
sS'process'
p1552
I98
sS'truth'
p1553
I4
sS'olog'
p1554
I16
sS'requesttiming'
p1555
I1
sS'equivalent'
p1556
I1
sS'communicate'
p1557
I1
sS'systemsnetwork'
p1558
I2
sS'dices'
p1559
I4
sS'although'
p1560
I1
sS'offset'
p1561
I2
sS'java'
p1562
I4
sS'systemsrealtime'
p1563
I1
sS'refers'
p1564
I8
sS'throw'
p1565
I1
sS'simpler'
p1566
I1
sS'on'
p1567
I57
sS'actual'
p1568
I1
sS'socket'
p1569
I36
sS'extension'
p1570
I4
sS'package'
p1571
I1
sS'of'
p1572
I958
sS'bestfirst'
p1573
I4
sS'gausslegendre'
p1574
I4
sS'addition'
p1575
I4
sS'stipulations'
p1576
I1
sS'acyclic'
p1577
I8
sS'os'
p1578
I18
sS'or'
p1579
I123
sS'road'
p1580
I1
sS'exactly'
p1581
I1
sS'own'
p1582
I1
sS'communication'
p1583
I11
sS'image'
p1584
I4
sS'functional'
p1585
I2
sS'getting'
p1586
I2
sS'square'
p1587
I10
sS'laplacian'
p1588
I4
sS'determine'
p1589
I12
sS'registration'
p1590
I4
sS'elementary'
p1591
I4
sS'actually'
p1592
I1
sS'your'
p1593
I9
sS'theoretically'
p1594
I4
sS'microprocessors'
p1595
I1
sS'terminated'
p1596
I1
sS'logics'
p1597
I1
sS'additional'
p1598
I1
sS'area'
p1599
I13
sS'transfer'
p1600
I8
sS'there'
p1601
I24
sS'brute'
p1602
I9
sS'checkfully'
p1603
I1
sS'smoothing'
p1604
I4
sS'does'
p1605
I13
sS'packagenumerical'
p1606
I1
sS'quadratic'
p1607
I20
sS'antiderivatives'
p1608
I4
sS'instructiondata'
p1609
I1
sS'bubble'
p1610
I74
sS'function'
p1611
I26
sS'complete'
p1612
I1
sS'triggered'
p1613
I1
sS'semaphore'
p1614
I12
sS'roottraverse'
p1615
I3
sS'hierarchical'
p1616
I7
sS'gain'
p1617
I4
sS'automated'
p1618
I3
sS'multitasking'
p1619
I2
sS'trying'
p1620
I8
sS'with'
p1621
I50
sS'auxiliary'
p1622
I4
sS'fragmentation'
p1623
I8
sS'made'
p1624
I1
sS'compute'
p1625
I44
sS'places'
p1626
I2
sS'whether'
p1627
I9
sS'cells'
p1628
I1
sS'bucket'
p1629
I4
sS'signed'
p1630
I4
sS'record'
p1631
I2
sS'limit'
p1632
I1
sS'distribution'
p1633
I1
sS'deadlock'
p1634
I2
sS'managementmemory'
p1635
I2
sS'strongly'
p1636
I12
sS'instead'
p1637
I5
sS'toomcook'
p1638
I4
sS'hellman'
p1639
I4
sS'certain'
p1640
I16
sS'bitap'
p1641
I4
sS'generating'
p1642
I8
sS'levenshtein'
p1643
I8
sS'general'
p1644
I3
sS'quantum'
p1645
I14
sS'as'
p1646
I56
sS'linecalls'
p1647
I1
sS'at'
p1648
I12
sS'file'
p1649
I18
sS'ax'
p1650
I4
sS'spends'
p1651
I4
sS'polyphase'
p1652
I1
sS'high'
p1653
I1
sS'functions'
p1654
I15
sS'compared'
p1655
I1
sS'drivers'
p1656
I1
sS'nonrecursive'
p1657
I4
sS'storage'
p1658
I3
sS'virtual'
p1659
I3
sS'field'
p1660
I4
sS'other'
p1661
I6
sS'5'
p1662
I1
sS'branch'
p1663
I1
sS'you'
p1664
I557
sS'mentions'
p1665
I4
sS'kinds'
p1666
I2
sS'separate'
p1667
I2
sS'symbol'
p1668
I2
sS'vertex'
p1669
I5
sS'inherently'
p1670
I5
sS'includes'
p1671
I7
sS'processrunning'
p1672
I1
sS'important'
p1673
I8
sS'included'
p1674
I4
sS'pool'
p1675
I5
sS'searches'
p1676
I4
sS'insertions'
p1677
I1
sS'spaceon2'
p1678
I1
sS'calls'
p1679
I4
sS'requires'
p1680
I4
sS'curve'
p1681
I4
sS'rule'
p1682
I12
sS'having'
p1683
I2
sS'userresource'
p1684
I1
sS'directory'
p1685
I4
sS'starting'
p1686
I3
sS'strings'
p1687
I32
stp1688
Rp1689
sS'limit'
p1690
(dp1691
S'minq'
p1692
I0
sS'maxq'
p1693
I20
sS'maxa'
p1694
I20
sS'mina'
p1695
I3
ssS'w2idx'
p1696
(dp1697
g4
I7
sg5
I558
sg25
I176
sg10
I92
sg11
I1306
sg13
I1161
sg16
I1307
sg19
I1308
sg21
I324
sg22
I366
sg23
I559
sg24
I631
sg9
I630
sg26
I1162
sg27
I1106
sg31
I632
sg32
I1163
sg35
I249
sg38
I633
sg39
I108
sg43
I1309
sg1140
I367
sg50
I131
sg54
I634
sg55
I635
sg575
I560
sg60
I325
sg64
I293
sg372
I155
sg70
I1164
sg74
I561
sg125
I528
sg20
I1165
sg77
I638
sg78
I368
sg80
I639
sg81
I1166
sg82
I250
sg83
I1311
sg85
I640
sg89
I641
sg90
I1312
sg92
I642
sg95
I562
sg96
I55
sg97
I643
sg100
I230
sg102
I177
sg104
I718
sg105
I644
sg107
I645
sg108
I369
sg585
I719
sg110
I646
sg115
I1315
sg116
I647
sg117
I648
sg121
I326
sg122
I1316
sg124
I370
sg126
I1317
sg127
I1318
sg128
I649
sg129
I1167
sg130
I650
sg132
I563
sg133
I651
sg134
I1319
sg136
I1107
sg137
I1168
sg139
I1320
sg144
I1169
sg145
I1170
sg800
I393
sg148
I371
sg150
I1375
sg155
I1322
sg159
I1323
sg162
I305
sg164
I958
sg165
I1324
sg167
I82
sg168
I294
sg173
I159
sg1161
I123
sg176
I1325
sg177
I1171
sg599
I652
sg181
I653
sg182
I1620
sg183
I654
sg185
I372
sg186
I373
sg188
I306
sg191
I1172
sg192
I178
sg193
I13
sg194
I1326
sg195
I251
sg196
I1327
sg197
I1328
sg198
I329
sg199
I1329
sg200
I1330
sg202
I1331
sg204
I1173
sg206
I252
sg207
I1108
sg208
I655
sg210
I1332
sg211
I217
sg212
I160
sg215
I656
sg216
I1333
sg219
I1334
sg222
I114
sg223
I26
sg225
I1335
sg226
I45
sg229
I532
sg230
I179
sg233
I374
sg235
I375
sg236
I1336
sg237
I657
sg241
I1174
sg242
I1337
sg243
I658
sg248
I376
sg249
I659
sg614
I660
sg254
I253
sg255
I231
sg256
I232
sg258
I661
sg259
I662
sg262
I180
sg263
I663
sg266
I1338
sg268
I377
sg271
I533
sg272
I1339
sg273
I664
sg274
I218
sg276
I16
sg279
I1340
sg622
I41
sg285
I665
sg1180
I1341
sg291
I330
sg292
I1175
sg294
I666
sg295
I667
sg296
I1342
sg301
I1343
sg625
I571
sg302
I43
sg1185
I668
sg306
I669
sg307
I1344
sg309
I1345
sg310
I254
sg312
I670
sg313
I962
sg316
I1176
sg320
I671
sg624
I1292
sg325
I1347
sg327
I672
sg328
I1177
sg330
I673
sg331
I70
sg334
I1348
sg335
I572
sg337
I1179
sg342
I307
sg345
I1109
sg346
I675
sg348
I677
sg350
I678
sg351
I564
sg352
I679
sg354
I1350
sg362
I52
sg366
I331
sg369
I1180
sg371
I38
sg66
I636
sg374
I255
sg375
I1351
sg376
I680
sg378
I256
sg379
I681
sg380
I682
sg383
I683
sg385
I378
sg388
I684
sg389
I685
sg390
I686
sg392
I1352
sg393
I687
sg400
I1353
sg401
I565
sg403
I688
sg406
I1354
sg1204
I1355
sg409
I379
sg412
I689
sg414
I1356
sg415
I380
sg420
I1357
sg422
I1181
sg424
I182
sg425
I332
sg427
I56
sg428
I690
sg429
I691
sg431
I1358
sg905
I438
sg433
I566
sg434
I692
sg435
I1359
sg437
I1182
sg438
I1110
sg442
I308
sg448
I312
sg451
I381
sg453
I534
sg454
I1360
sg455
I18
sg458
I693
sg463
I694
sg465
I183
sg466
I9
sg467
I1361
sg468
I695
sg474
I696
sg477
I567
sg478
I1362
sg479
I516
sg482
I1363
sg483
I1183
sg806
I697
sg485
I1364
sg487
I184
sg489
I698
sg491
I699
sg495
I42
sg496
I333
sg497
I309
sg498
I568
sg501
I1365
sg503
I700
sg504
I701
sg505
I702
sg506
I1184
sg507
I703
sg508
I382
sg509
I1366
sg315
I623
sg512
I535
sg513
I310
sg515
I704
sg666
I1367
sg522
I705
sg527
I334
sg529
I384
sg530
I1185
sg532
I1186
sg533
I335
sg534
I706
sg93
I1368
sS'unk'
p1698
I1
sg541
I336
sg542
I121
sg543
I1369
sg547
I385
sg548
I386
sg549
I707
sg551
I1370
sg552
I708
sg553
I1187
sg555
I709
sg557
I1371
sg558
I234
sg559
I1372
sg563
I710
sg564
I1373
sg566
I569
sg567
I711
sg569
I712
sg570
I1188
sg572
I713
sg573
I714
sg574
I715
sg577
I99
sg578
I185
sg75
I716
sg582
I717
sg584
I1313
sg109
I1314
sg586
I570
sg589
I1374
sg590
I5
sg45
I1189
sg592
I36
sg594
I1376
sg596
I720
sg597
I536
sg598
I12
sg601
I1190
sg602
I311
sg603
I115
sg604
I721
sg609
I1377
sg610
I1378
sg611
I164
sg612
I1349
sg250
I722
sg617
I1379
sg618
I723
sg621
I1380
sg169
I898
sg626
I1381
sg628
I1382
sg632
I674
sg633
I724
sg347
I725
sg637
I142
sg640
I726
sg641
I258
sg647
I1383
sg648
I727
sg649
I1384
sg650
I2
sg651
I1191
sg653
I295
sg660
I728
sg661
I537
sg662
I1192
sg665
I729
sg670
I730
sg673
I132
sg675
I1385
sg676
I1386
sg677
I259
sg679
I731
sg681
I1193
sg683
I1111
sg692
I387
sg693
I517
sg695
I732
sg696
I733
sg700
I235
sg702
I734
sg707
I1387
sg1523
I1194
sg690
I388
sg713
I17
sg714
I735
sg717
I736
sg718
I389
sg719
I1195
sg720
I1388
sg722
I737
sg723
I738
sg724
I1389
sg729
I740
sg730
I1390
sg731
I741
sg732
I1112
sg736
I1391
sg1463
I739
sg738
I742
sg740
I1196
sg742
I1197
sg1654
I211
sg744
I743
sg749
I1393
sg751
I744
sg753
I1394
sg756
I1198
sg758
I1263
sg759
I573
sg760
I1395
sg761
I746
sg766
I538
sg767
I1396
sg768
I1137
sg769
I391
sg775
I143
sg778
I392
sg779
I747
sg1227
I414
sg783
I260
sg789
I518
sg790
I1609
sg792
I748
sg796
I1397
sg798
I1199
sg799
I85
sg146
I1321
sg801
I1200
sg804
I1113
sg1369
I1201
sg808
I1398
sg809
I394
sg810
I395
sg811
I749
sg818
I1399
sg819
I575
sg820
I396
sg824
I133
sg825
I63
sg828
I1400
sg829
I1202
sg830
I93
sg832
I76
sg835
I1401
sg836
I750
sg837
I751
sg838
I397
sg840
I1203
sg842
I752
sg846
I219
sg849
I1402
sg851
I1204
sg856
I31
sg857
I753
sg858
I1205
sg860
I754
sg862
I539
sg863
I261
sg864
I337
sg865
I398
sg866
I1403
sg867
I755
sg1458
I1114
sg870
I1404
sg871
I1206
sg872
I262
sg875
I1405
sg876
I263
sg877
I29
sg878
I236
sg880
I576
sg885
I756
sg886
I186
sg888
I138
sg889
I577
sg891
I1406
sg892
I757
sg893
I1407
sg895
I519
sg896
I212
sg897
I264
sg898
I187
sg901
I1408
sg902
I86
sg906
I399
sg907
I1409
sg908
I758
sg913
I1410
sg915
I759
sg918
I1411
sg919
I1412
sg921
I400
sg923
I760
sg926
I401
sg927
I402
sg929
I761
sg938
I520
sg940
I578
sg941
I403
sg942
I521
sg948
I220
sg949
I1414
sg950
I762
sg951
I338
sg957
I1115
sg959
I522
sg960
I265
sg961
I1415
sg962
I1207
sg963
I763
sg966
I109
sg172
I676
sg969
I1416
sg970
I765
sg1579
I27
sg972
I188
sg973
I1417
sg975
I1418
sg978
I766
sg980
I134
sg982
I1419
sg984
I767
sg985
I1209
sg988
I1420
sg989
I768
sg992
I769
sg994
I1421
sg995
I770
sg996
I1116
sg997
I189
sg178
I1422
sg1003
I771
sg1005
I404
sg1006
I772
sg1007
I773
sg1008
I116
sg1009
I405
sg1010
I1423
sg1013
I266
sg1017
I1424
sg1018
I774
sg1019
I775
sg1020
I776
sg1021
I777
sg1022
I778
sg1023
I221
sg1025
I165
sg737
I1392
sg1027
I1117
sg1028
I1425
sg1031
I1426
sg1033
I313
sg1034
I779
sg1035
I780
sg1036
I339
sg1037
I781
sg1039
I406
sg1040
I782
sg1042
I100
sg1043
I783
sg1045
I124
sg1047
I1427
sg1049
I296
sg1051
I39
sg189
I784
sg1054
I1428
sg1056
I785
sg1059
I267
sg1060
I786
sg1062
I407
sg1405
I1413
sg1067
I787
sg1068
I1118
sg1070
I1430
sg1072
I788
sg1073
I1119
sg1077
I408
sg1079
I1431
sg1081
I934
sg1084
I789
sg1085
I1210
sg1086
I268
sg1308
I409
sg1089
I579
sg1090
I1432
sg1091
I1211
sg1093
I790
sg1095
I340
sg1097
I791
sg1098
I190
sg1099
I94
sg1101
I792
sg1502
I448
sg1104
I580
sg1106
I794
sg1108
I795
sg1112
I796
sg1116
I181
sg1117
I1212
sg1120
I166
sg1121
I411
sg1126
I1213
sg1131
I78
sg1132
I797
sg1134
I1433
sg1136
I1434
sg1139
I798
sg1498
I799
sg1145
I540
sg1146
I125
sg1147
I1214
sg1149
I800
sg1150
I1215
sg1152
I801
sg1153
I412
sg1155
I802
sg1318
I1435
sg174
I523
sg1163
I803
sg1168
I213
sg1169
I1436
sg1174
I1437
sg1175
I1438
sg1176
I804
sg1177
I74
sg1179
I150
sg289
I315
sg1182
I1439
sg1183
I156
sg1184
I1440
sg303
I806
sg1186
I87
sg1190
I807
sg1195
I1441
sg1196
I808
sg1197
I1442
sg1199
I144
sg1201
I809
sg1202
I28
sg1205
I413
sg1207
I1443
sg1209
I79
sg1212
I1216
sg1213
I524
sg1214
I810
sg1215
I1444
sg1220
I1445
sg1221
I1446
sg1222
I1447
sg1224
I811
sg1226
I22
sg781
I574
sg1228
I1217
sg1229
I1448
sg1232
I1449
sg1235
I1218
sg1239
I1450
sg1240
I117
sg1242
I812
sg1244
I297
sg1249
I813
sg1250
I35
sg1252
I814
sg1253
I415
sg1254
I1451
sg1255
I815
sg1259
I191
sg1262
I1452
sg1263
I816
sg1265
I581
sg1266
I71
sg1269
I817
sg1272
I818
sg1274
I1453
sg1276
I416
sg1278
I819
sg1284
I582
sg1289
I222
sg510
I383
sg1293
I1219
sg794
I105
sg1297
I908
sg1298
I821
sg1299
I583
sg1300
I822
sg1302
I823
sg1303
I584
sg1304
I1454
sg1088
I417
sg1310
I585
sg1314
I1456
sg1312
I1642
sg1319
I214
sg1320
I64
sg1323
I418
sg1326
I269
sg1333
I824
sg1334
I541
sg1338
I825
sg1339
I1220
sg1340
I826
sg1342
I37
sg1343
I827
sg1344
I586
sg1345
I1455
sg1346
I587
sg1347
I1457
sg1350
I588
sg1352
I1458
sg1355
I828
sg1358
I829
sg1359
I1459
sg1361
I830
sg1362
I548
sg1363
I270
sg1364
I1460
sg1365
I1461
sg1366
I341
sg1367
I831
sg1368
I271
sg94
I832
sg1370
I419
sg1372
I1462
sg247
I833
sg1379
I342
sg1380
I420
sg772
I589
sg1383
I1463
sg1385
I834
sg1388
I59
sg1389
I835
sg1392
I1221
sg1398
I316
sg1400
I1464
sg1402
I836
sg1404
I421
sg502
I24
sg1407
I837
sg1408
I1465
sg1410
I1222
sg1411
I994
sg1415
I1223
sg1416
I1466
sg1421
I839
sg1429
I840
sg1431
I25
sg1432
I139
sg1436
I422
sg1441
I1467
sg1443
I841
sg1447
I423
sg1448
I424
sg1449
I842
sg1450
I1468
sg1452
I843
sg1454
I1469
sg1455
I844
sg1456
I1470
sg1457
I1471
sg359
I845
sg1459
I846
sg1462
I847
sg404
I425
sg1464
I237
sg1465
I848
sg1467
I1224
sg1468
I426
sg1471
I849
sg1474
I850
sg1478
I427
sg1480
I1225
sg1484
I851
sg1485
I1226
sg1486
I525
sg1488
I298
sg1490
I1472
sg1493
I354
sg1495
I192
sg1497
I852
sg1500
I1473
sg1501
I853
sg1503
I1474
sg1504
I1120
sg1505
I1475
sg1506
I854
sg1507
I110
sg1509
I526
sg1513
I1227
sg1514
I428
sg1515
I1228
sg1519
I429
sg1520
I343
sg1521
I1476
sg1522
I1477
sg1487
I1229
sg1524
I1478
sg1526
I855
sg1532
I856
sg1536
I145
sg1540
I857
sg1544
I1230
sg1547
I858
sg1548
I167
sg1549
I1479
sg1550
I146
sg924
I481
sg1555
I1586
sg1556
I1480
sg1557
I1481
sg1559
I859
sg1564
I430
sg1565
I1482
sS'_'
p1699
I0
sg1261
I483
sg1571
I1483
sg1572
I3
sg1573
I860
sg1574
I861
sg1576
I1484
sg1577
I431
sg1578
I161
sg1058
I432
sg1580
I1485
sg1583
I299
sg1584
I862
sg1589
I273
sg1591
I863
sg1593
I344
sg1594
I864
sg1597
I1487
sg1599
I238
sg1601
I126
sg1602
I345
sg1606
I1488
sg1609
I1489
sg1610
I40
sg1612
I1490
sg1615
I1121
sg1619
I1231
sg1620
I433
sg1621
I60
sg1629
I865
sg1634
I1232
sg1635
I1233
sg1636
I274
sg1258
I1632
sg1639
I866
sg1640
I194
sg1644
I1122
sg287
I1491
sg1646
I53
sg1647
I1492
sg1648
I275
sg1649
I162
sg1650
I867
sg1651
I868
sg1656
I1493
sg1658
I1123
sg1660
I869
sg1662
I1494
sg1664
I10
sg1667
I1234
sg1668
I1235
sg1669
I590
sg1671
I527
sg1672
I1495
sg1673
I434
sg1674
I870
sg1675
I591
sg1677
I1496
sg1679
I871
sg859
I276
sg1681
I872
sg1004
I1003
sg1685
I873
sg1479
I1305
sg456
I323
sg711
I223
sg6
I101
sg8
I874
sg608
I1497
sg12
I317
sg545
I477
sg15
I1498
sg65
I875
sg17
I876
sg18
I435
sg76
I1125
sg88
I1237
sg101
I877
sg1376
I1499
sg28
I14
sg29
I77
sg30
I1238
sg147
I436
sg33
I111
sg34
I272
sg36
I878
sg37
I879
sg156
I44
sg40
I1500
sg41
I168
sg42
I592
sg516
I1501
sg44
I542
sg46
I880
sg49
I30
sg51
I224
sg305
I1239
sg1534
I437
sg58
I881
sg59
I1502
sg61
I882
sg62
I1503
sg67
I95
sg68
I543
sg69
I593
sg71
I883
sg72
I8
sg73
I1126
sg432
I257
sg79
I439
sg481
I57
sg84
I1504
sg87
I594
sg91
I884
sg535
I69
sg98
I885
sg99
I886
sg674
I440
sg1453
I1505
sg103
I21
sg106
I887
sg111
I239
sg113
I196
sg114
I888
sg1665
I889
sg118
I890
sg119
I1506
sg120
I441
sg669
I1507
sg123
I891
sg689
I1508
sg131
I1240
sg710
I1241
sg1482
I892
sg135
I893
sg733
I240
sg138
I346
sg746
I894
sg140
I32
sg141
I1127
sg142
I1509
sg143
I1128
sg803
I147
sg149
I595
sg151
I895
sg152
I896
sg153
I318
sg1425
I347
sg158
I442
sg160
I1510
sg161
I197
sg163
I897
sg935
I1511
sg166
I1129
sg171
I899
sg968
I764
sg974
I1130
sg324
I1346
sg175
I1514
sg998
I1131
sg1001
I319
sg179
I96
sg180
I141
sg568
I348
sg1041
I1242
sg1052
I118
sg190
I900
sg329
I1515
sg203
I902
sg697
I443
sg1165
I198
sg209
I1516
sg1192
I903
sg213
I1243
sg214
I4
sg785
I349
sg218
I1517
sg221
I904
sg224
I905
sg1595
I1518
sg228
I906
sg231
I1519
sg232
I907
sg234
I820
sg1317
I1520
sg239
I215
sg240
I444
sg244
I909
sg245
I1244
sg246
I1521
sg1373
I350
sg1592
I1522
sg1384
I910
sg251
I169
sg252
I911
sg253
I445
sg257
I1245
sg264
I912
sg265
I241
sg267
I129
sg269
I913
sg275
I446
sg56
I1523
sg278
I1524
sg280
I320
sg281
I1247
sg282
I914
sg283
I915
sg286
I916
sg1645
I225
sg288
I544
sg1065
I447
sg1118
I277
sg297
I917
sg298
I918
sg299
I1525
sg300
I545
sg1210
I1513
sg304
I242
sg311
I919
sg314
I199
sg317
I449
sg318
I920
sg319
I148
sg154
I1248
sg322
I106
sg323
I1526
sg326
I1133
sg201
I450
sg332
I1527
sg333
I1249
sg336
I921
sg261
I54
sg338
I1528
sg339
I1529
sg340
I1530
sg341
I922
sg343
I451
sg321
I1531
sg461
I596
sg7
I1250
sg353
I1251
sg355
I1252
sg356
I923
sg358
I924
sg1508
I135
sg361
I1532
sg363
I1533
sg364
I1534
sg365
I925
sg367
I926
sg368
I452
sg373
I1253
sg1279
I1254
sg1291
I927
sg377
I1535
sg519
I928
sg381
I929
sg382
I930
sg384
I1536
sg386
I453
sg387
I454
sg391
I1537
sg394
I931
sg396
I1538
sg399
I932
sg402
I216
sg668
I1134
sg349
I933
sg1587
I314
sg405
I455
sg408
I58
sg1466
I456
sg410
I1539
sg411
I1135
sg734
I1486
sg413
I226
sg417
I351
sg418
I935
sg419
I936
sg421
I119
sg423
I1541
sg1330
I291
sg430
I938
sg852
I939
sg436
I940
sg887
I1542
sg440
I597
sg441
I598
sg446
I50
sg447
I546
sg449
I599
sg528
I941
sg452
I600
sg954
I942
sg457
I457
sg460
I458
sg464
I601
sg1015
I943
sg469
I459
sg470
I300
sg471
I1543
sg472
I1310
sg473
I1255
sg1071
I1136
sg476
I1256
sg480
I1544
sg1142
I102
sg484
I1545
sg488
I47
sg490
I1546
sg492
I460
sg493
I461
sg494
I1257
sg499
I1547
sg1290
I200
sg1349
I462
sg511
I390
sg514
I1258
sg63
I1064
sg520
I945
sg523
I946
sg524
I352
sg525
I1138
sg526
I1548
sg1420
I947
sg1435
I201
sg531
I463
sg536
I72
sg537
I75
sg1491
I247
sg539
I949
sg540
I464
sg544
I950
sg1562
I1091
sg550
I127
sg1588
I952
sg554
I953
sg1107
I1549
sg556
I1259
sg560
I954
sg561
I1550
sg1642
I465
sg565
I955
sg571
I1551
sg47
I170
sg52
I202
sg57
I956
sg576
I1552
sg579
I637
sg580
I321
sg581
I1260
sg583
I1553
sg112
I353
sg1322
I1554
sg587
I1261
sg588
I301
sg290
I1555
sg591
I957
sg593
I1556
sg595
I327
sg170
I466
sg600
I959
sg883
I206
sg616
I960
sg619
I149
sg620
I1557
sg1016
I1139
sg284
I961
sg623
I1558
sg627
I233
sg48
I1085
sg629
I1559
sg630
I547
sg631
I1178
sg635
I963
sg636
I163
sg638
I964
sg639
I1560
sg370
I1561
sg642
I1562
sg643
I1262
sg644
I965
sg645
I602
sg646
I966
sg270
I157
sg1433
I967
sg654
I968
sg656
I969
sg658
I1563
sg659
I1599
sg663
I1140
sg664
I278
sg518
I970
sg671
I971
sg672
I243
sg521
I972
sg678
I1565
sg1083
I1278
sg680
I603
sg682
I279
sg684
I973
sg685
I66
sg686
I604
sg687
I1566
sg688
I1567
sg709
I974
sg691
I1568
sg1446
I1569
sg694
I1570
sg698
I605
sg699
I244
sg701
I745
sg703
I84
sg704
I203
sg705
I1571
sg706
I280
sg53
I467
sg712
I1264
sg715
I1572
sg869
I975
sg853
I976
sg721
I468
sg912
I61
sg725
I469
sg727
I977
sg728
I606
sg976
I11
sg987
I470
sg735
I1573
sg1026
I1265
sg739
I978
sg743
I607
sg745
I1574
sg747
I471
sg748
I1141
sg750
I979
sg752
I1142
sg439
I1575
sg754
I1266
sg755
I980
sg757
I981
sg1144
I1576
sg762
I982
sg763
I1267
sg764
I608
sg765
I983
sg1170
I472
sg770
I805
sg773
I984
sg774
I609
sg776
I985
sg777
I986
sg1133
I473
sg562
I1268
sg782
I1577
sg784
I1143
sg1529
I987
sg787
I1269
sg788
I529
sg791
I204
sg981
I988
sg1296
I989
sg795
I990
sg797
I1014
sg1325
I991
sg802
I1578
sg260
I992
sg805
I46
sg807
I1144
sg1381
I1208
sg357
I1579
sg1390
I610
sg812
I1580
sg813
I993
sg814
I1581
sg815
I838
sg816
I995
sg817
I1582
sg426
I1270
sg1437
I1583
sg821
I1584
sg822
I474
sg823
I205
sg826
I996
sg827
I611
sg831
I475
sg1525
I1271
sg833
I1145
sg834
I103
sg1537
I1585
sg741
I476
sg839
I140
sg945
I171
sg841
I997
sg843
I998
sg844
I999
sg845
I281
sg847
I128
sg848
I1587
sg850
I6
sg1353
I1000
sg854
I612
sg855
I1001
sg1680
I1002
sg1683
I1236
sg861
I1588
sg14
I195
sg868
I1589
sg873
I1590
sg874
I1004
sg86
I1005
sg360
I1146
sg879
I1006
sg881
I1591
sg882
I478
sg1135
I322
sg884
I1147
sg890
I1007
sg894
I479
sg914
I1592
sg899
I1008
sg900
I1593
sg903
I1009
sg904
I1010
sg909
I1667
sg910
I1011
sg1102
I282
sg916
I283
sg917
I480
sg920
I1012
sg922
I227
sg1554
I193
sg444
I1013
sg450
I1246
sg928
I1015
sg462
I1595
sg930
I1016
sg932
I549
sg933
I136
sg934
I1017
sg936
I1272
sg937
I1018
sg652
I207
sg939
I1596
sg943
I550
sg944
I1019
sg946
I1020
sg947
I1273
sg952
I613
sg953
I1021
sg955
I1597
sg657
I1598
sg958
I1564
sg964
I1600
sg965
I482
sg967
I1022
sg726
I228
sg971
I67
sg445
I355
sg977
I1274
sg1233
I1023
sg793
I356
sg983
I20
sg986
I1601
sg1567
I51
sg990
I1602
sg991
I1275
sg344
I1276
sg993
I1024
sg667
I97
sg1000
I484
sg1002
I73
sg1011
I1603
sg1012
I357
sg1014
I1604
sg1552
I33
sg1653
I1605
sg1024
I1025
sg1061
I1148
sg1029
I284
sg1030
I1026
sg1637
I614
sg1100
I1027
sg1038
I615
sg1044
I616
sg1046
I1028
sg1048
I90
sg1050
I1606
sg1198
I208
sg1055
I1607
sg1231
I1029
sg1238
I617
sg1064
I1608
sg1066
I1030
sg184
I89
sg1069
I285
sg1074
I485
sg1075
I1149
sg1076
I1277
sg1078
I486
sg1080
I1610
sg1082
I1031
sg1087
I1611
sg1422
I1032
sg1430
I1612
sg1092
I1279
sg1439
I1033
sg1094
I172
sg1096
I1613
sg1481
I302
sg1105
I1034
sg1541
I173
sg1109
I1035
sg1110
I1036
sg1111
I286
sg1553
I1037
sg1113
I98
sg1114
I1038
sg1119
I1039
sg1122
I618
sg1123
I551
sg1124
I174
sg1125
I487
sg1127
I358
sg1128
I229
sg1129
I1614
sg1130
I1280
sg1684
I1615
sg605
I1040
sg1137
I1616
sg1138
I1617
sg1141
I1618
sg1143
I1619
sg1148
I1041
sg1151
I1281
sg1154
I107
sg1157
I1042
sg1158
I209
sg1159
I1282
sg1160
I1043
sg1162
I328
sg1164
I488
sg1166
I1621
sg1167
I1622
sg1171
I1044
sg1173
I1623
sg1178
I489
sg1181
I1624
sg293
I490
sg1187
I619
sg1188
I1045
sg1189
I1046
sg1191
I65
sg1193
I1283
sg1194
I158
sg1200
I1047
sg1387
I1512
sg1203
I1625
sg407
I491
sg1581
I1626
sg1206
I245
sg1208
I1150
sg443
I287
sg459
I1627
sg1216
I1151
sg1217
I359
sg1218
I360
sg1219
I151
sg1223
I1048
sg1225
I23
sg1230
I1049
sg1234
I1628
sg1236
I175
sg1237
I1284
sg606
I1050
sg613
I112
sg1241
I1629
sg1243
I492
sg1245
I1630
sg1246
I1285
sg1247
I1631
sg1248
I34
sg1251
I288
sg716
I1051
sg1256
I289
sg1063
I1429
sg1260
I152
sg1336
I1052
sg771
I210
sg1264
I1633
sg1267
I552
sg1268
I493
sg1616
I530
sg1271
I48
sg1273
I620
sg1275
I494
sg1277
I1634
sg1280
I495
sg1281
I1053
sg1282
I1054
sg1283
I246
sg1285
I621
sg1286
I1635
sg1288
I553
sg979
I1286
sg1292
I361
sg1294
I1636
sg1295
I496
sg911
I1637
sg1032
I1638
sg1301
I497
sg1057
I1287
sg187
I1055
sg1305
I362
sg1307
I622
sg1309
I122
sg1311
I410
sg1313
I1056
sg1316
I1288
sg1156
I1057
sg1172
I1152
sg1321
I1058
sg277
I1059
sg1324
I1060
sg1211
I1061
sg1327
I153
sg1328
I554
sg1329
I1062
sg1332
I1153
sg1335
I1063
sg1287
I137
sg1341
I1639
sg1306
I1640
sg517
I944
sg1348
I1065
sg1351
I1641
sg1354
I83
sg1375
I555
sg1356
I1066
sg1357
I1643
sg1633
I1644
sg1424
I1067
sg780
I1289
sg1371
I498
sg1374
I1540
sg1377
I1068
sg1378
I1069
sg1528
I91
sg1533
I531
sg1382
I1290
sg1386
I1291
sg1575
I1070
sg925
I1071
sg1391
I1645
sg1614
I290
sg1393
I15
sg1394
I1646
sg1395
I1647
sg1396
I624
sg1397
I499
sg1399
I500
sg1401
I1648
sg227
I1154
sg1403
I19
sg1406
I1649
sg1409
I1072
sg1412
I113
sg1413
I1073
sg1414
I303
sg1417
I501
sg1419
I1650
sg1423
I502
sg157
I363
sg1426
I1651
sg1427
I1652
sg1428
I1653
sg1434
I1654
sg238
I1155
sg1438
I1293
sg1440
I1074
sg1442
I1655
sg1444
I1132
sg1445
I1656
sg1315
I1075
sg1451
I1076
sg308
I1077
sg395
I1078
sg1460
I625
sg1461
I556
sg397
I503
sg217
I1079
sg416
I304
sg1469
I937
sg1470
I1080
sg1472
I504
sg1473
I1294
sg1475
I626
sg1476
I1657
sg1477
I505
sg1483
I1658
sg1489
I1081
sg538
I948
sg1492
I1082
sg1496
I1083
sg1337
I1156
sg1499
I1084
sg1103
I793
sg634
I506
sg1494
I507
sg1510
I1659
sg1511
I627
sg1512
I1295
sg708
I1660
sg1516
I1661
sg1517
I1662
sg1518
I1663
sg999
I364
sg1331
I80
sg607
I1086
sg1527
I62
sg786
I1087
sg1530
I1088
sg1531
I104
sg500
I130
sg1535
I1664
sg1538
I1665
sg1539
I1666
sg1542
I1296
sg1543
I1089
sg1545
I1157
sg1546
I1090
sg1605
I248
sg1551
I1594
sg931
I1158
sg1558
I1297
sg956
I508
sg1560
I1668
sg1561
I1298
sg205
I901
sg1563
I1669
sg1566
I1670
sg1568
I1671
sg1569
I81
sg1570
I1092
sg1586
I1299
sg1053
I509
sg486
I1093
sg1582
I1672
sg1115
I1094
sg1585
I1300
sg615
I1095
sg1590
I1096
sg1596
I1673
sg1598
I1674
sg1600
I510
sg1603
I1675
sg1604
I1097
sg1607
I154
sg1608
I1098
sg1611
I120
sg1613
I1676
sg1257
I628
sg1270
I1301
sg1617
I1099
sg1618
I1159
sg1678
I1677
sg1623
I511
sg1624
I1678
sg1625
I68
sg1626
I1302
sg1627
I365
sg1628
I1679
sg398
I512
sg1630
I1100
sg1631
I1303
sg1632
I1680
sg1360
I49
sg655
I513
sg1638
I1101
sg1641
I1102
sg220
I1681
sg1643
I514
sg1418
I1682
sg1652
I1683
sg475
I515
sg1655
I1684
sg1657
I1103
sg1659
I1160
sg1661
I557
sg1663
I1685
sg1666
I1304
sg1670
I629
sg1676
I1104
sg1622
I1105
sg546
I951
sg1686
I1124
sg1682
I292
sg1687
I88
ssS'idx2w'
p1700
(lp1701
g1699
ag1698
ag650
ag1572
ag214
ag590
ag850
ag4
ag72
ag466
ag1664
ag976
ag598
ag193
ag28
ag1393
ag276
ag713
ag455
ag1403
ag983
ag103
ag1226
ag1225
ag502
ag1431
ag223
ag1579
ag1202
ag877
ag49
ag856
ag140
ag1552
ag1248
ag1250
ag592
ag1342
ag371
ag1051
ag1610
ag622
ag495
ag302
ag156
ag226
ag805
ag488
ag1271
ag1360
ag446
ag1567
ag362
ag1646
ag261
ag96
ag427
ag481
ag408
ag1388
ag1621
ag912
ag1527
ag825
ag1320
ag1191
ag685
ag971
ag1625
ag535
ag331
ag1266
ag536
ag1002
ag1177
ag537
ag832
ag29
ag1131
ag1209
ag1331
ag1569
ag167
ag1354
ag703
ag799
ag902
ag1186
ag1687
ag184
ag1048
ag1528
ag10
ag830
ag1099
ag67
ag179
ag667
ag1113
ag577
ag1042
ag6
ag1142
ag834
ag1531
ag794
ag322
ag1154
ag39
ag966
ag1507
ag33
ag613
ag1412
ag222
ag603
ag1008
ag1240
ag1052
ag421
ag1611
ag542
ag1309
ag1161
ag1045
ag1146
ag1601
ag550
ag847
ag267
ag500
ag50
ag673
ag824
ag980
ag1508
ag933
ag1287
ag888
ag1432
ag839
ag180
ag637
ag775
ag1199
ag1536
ag1550
ag803
ag319
ag619
ag1179
ag1219
ag1260
ag1327
ag1607
ag372
ag1183
ag270
ag1194
ag173
ag212
ag1578
ag1649
ag636
ag611
ag1025
ag1120
ag1548
ag41
ag251
ag47
ag945
ag1094
ag1541
ag1124
ag1236
ag25
ag102
ag192
ag230
ag262
ag1116
ag424
ag465
ag487
ag578
ag886
ag898
ag972
ag997
ag1098
ag1259
ag1495
ag1554
ag1640
ag14
ag113
ag161
ag1165
ag314
ag1290
ag1435
ag52
ag704
ag791
ag823
ag883
ag652
ag1198
ag1158
ag771
ag1654
ag896
ag1168
ag1319
ag239
ag402
ag211
ag274
ag846
ag948
ag1023
ag1289
ag711
ag51
ag1645
ag413
ag922
ag726
ag1128
ag100
ag255
ag256
ag627
ag558
ag700
ag878
ag1464
ag1599
ag111
ag733
ag265
ag304
ag672
ag699
ag1206
ag1283
ag1491
ag1605
ag35
ag82
ag195
ag206
ag254
ag310
ag374
ag378
ag432
ag641
ag677
ag783
ag863
ag872
ag876
ag897
ag960
ag1013
ag1059
ag1086
ag1326
ag1363
ag1368
ag34
ag1589
ag1636
ag1648
ag859
ag1118
ag664
ag682
ag706
ag845
ag1102
ag916
ag1029
ag1069
ag1111
ag443
ag1251
ag1256
ag1614
ag1330
ag1682
ag64
ag168
ag653
ag1049
ag1244
ag1488
ag1583
ag470
ag588
ag1481
ag1414
ag416
ag162
ag188
ag342
ag442
ag497
ag513
ag602
ag448
ag1033
ag1587
ag289
ag1398
ag12
ag153
ag1001
ag280
ag580
ag1135
ag456
ag21
ag60
ag121
ag595
ag1162
ag198
ag291
ag366
ag425
ag496
ag527
ag533
ag541
ag864
ag951
ag1036
ag1095
ag1366
ag1379
ag1520
ag1593
ag1602
ag138
ag1425
ag568
ag785
ag1373
ag417
ag524
ag112
ag1493
ag445
ag793
ag1012
ag1127
ag1217
ag1218
ag1292
ag1305
ag157
ag999
ag1627
ag22
ag1140
ag78
ag108
ag124
ag148
ag185
ag186
ag233
ag235
ag248
ag268
ag385
ag409
ag415
ag451
ag508
ag510
ag529
ag547
ag548
ag692
ag690
ag718
ag511
ag769
ag778
ag800
ag809
ag810
ag820
ag838
ag865
ag906
ag921
ag926
ag927
ag941
ag1005
ag1009
ag1039
ag1062
ag1077
ag1308
ag1311
ag1121
ag1153
ag1205
ag1227
ag1253
ag1276
ag1088
ag1323
ag1370
ag1380
ag1404
ag1436
ag1447
ag1448
ag404
ag1468
ag1478
ag1514
ag1519
ag1564
ag1577
ag1058
ag1620
ag1673
ag18
ag147
ag1534
ag905
ag79
ag674
ag120
ag158
ag697
ag240
ag253
ag275
ag1065
ag1502
ag317
ag201
ag343
ag368
ag386
ag387
ag405
ag1466
ag457
ag460
ag469
ag492
ag493
ag1349
ag531
ag540
ag1642
ag170
ag53
ag721
ag725
ag987
ag747
ag1170
ag1133
ag822
ag831
ag741
ag545
ag882
ag894
ag917
ag924
ag965
ag1261
ag1000
ag1074
ag1078
ag1125
ag1164
ag1178
ag293
ag407
ag1243
ag1268
ag1275
ag1280
ag1295
ag1301
ag1371
ag1397
ag1399
ag1417
ag1423
ag397
ag1472
ag1477
ag634
ag1494
ag956
ag1053
ag1600
ag1623
ag398
ag655
ag1643
ag475
ag479
ag693
ag789
ag895
ag938
ag942
ag959
ag174
ag1213
ag1486
ag1509
ag1671
ag125
ag788
ag1616
ag1533
ag229
ag271
ag453
ag512
ag597
ag661
ag766
ag862
ag1145
ag1334
ag44
ag68
ag288
ag300
ag447
ag630
ag1362
ag932
ag943
ag1123
ag1267
ag1288
ag1328
ag1375
ag1461
ag1661
ag5
ag23
ag575
ag74
ag95
ag132
ag351
ag401
ag433
ag477
ag498
ag566
ag586
ag625
ag335
ag759
ag781
ag819
ag880
ag889
ag940
ag1089
ag1104
ag1265
ag1284
ag1299
ag1303
ag1310
ag1344
ag1346
ag1350
ag772
ag1669
ag1675
ag42
ag69
ag87
ag149
ag461
ag440
ag441
ag449
ag452
ag464
ag645
ag680
ag686
ag698
ag728
ag743
ag764
ag774
ag1390
ag827
ag854
ag952
ag1637
ag1038
ag1044
ag1238
ag1122
ag1187
ag1273
ag1285
ag1307
ag315
ag1396
ag1460
ag1475
ag1511
ag1257
ag1670
ag9
ag24
ag31
ag38
ag54
ag55
ag66
ag579
ag77
ag80
ag85
ag89
ag92
ag97
ag105
ag107
ag110
ag116
ag117
ag128
ag130
ag133
ag599
ag181
ag183
ag208
ag215
ag237
ag243
ag249
ag614
ag258
ag259
ag263
ag273
ag285
ag294
ag295
ag1185
ag306
ag312
ag320
ag327
ag330
ag632
ag346
ag172
ag348
ag350
ag352
ag376
ag379
ag380
ag383
ag388
ag389
ag390
ag393
ag403
ag412
ag428
ag429
ag434
ag458
ag463
ag468
ag474
ag806
ag489
ag491
ag503
ag504
ag505
ag507
ag515
ag522
ag534
ag549
ag552
ag555
ag563
ag567
ag569
ag572
ag573
ag574
ag75
ag582
ag104
ag585
ag596
ag604
ag250
ag618
ag633
ag347
ag640
ag648
ag660
ag665
ag670
ag679
ag695
ag696
ag702
ag714
ag717
ag722
ag723
ag1463
ag729
ag731
ag738
ag744
ag751
ag701
ag761
ag779
ag792
ag811
ag836
ag837
ag842
ag857
ag860
ag867
ag885
ag892
ag908
ag915
ag923
ag929
ag950
ag963
ag968
ag970
ag978
ag984
ag989
ag992
ag995
ag1003
ag1006
ag1007
ag1018
ag1019
ag1020
ag1021
ag1022
ag1034
ag1035
ag1037
ag1040
ag1043
ag189
ag1056
ag1060
ag1067
ag1072
ag1084
ag1093
ag1097
ag1101
ag1103
ag1106
ag1108
ag1112
ag1132
ag1139
ag1498
ag1149
ag1152
ag1155
ag1163
ag1176
ag770
ag303
ag1190
ag1196
ag1201
ag1214
ag1224
ag1242
ag1249
ag1252
ag1255
ag1263
ag1269
ag1272
ag1278
ag234
ag1298
ag1300
ag1302
ag1333
ag1338
ag1340
ag1343
ag1355
ag1358
ag1361
ag1367
ag94
ag247
ag1385
ag1389
ag1402
ag1407
ag815
ag1421
ag1429
ag1443
ag1449
ag1452
ag1455
ag359
ag1459
ag1462
ag1465
ag1471
ag1474
ag1484
ag1497
ag1501
ag1506
ag1526
ag1532
ag1540
ag1547
ag1559
ag1573
ag1574
ag1584
ag1591
ag1594
ag1629
ag1639
ag1650
ag1651
ag1660
ag1674
ag1679
ag1681
ag1685
ag8
ag65
ag17
ag101
ag36
ag37
ag46
ag58
ag61
ag71
ag91
ag98
ag99
ag106
ag114
ag1665
ag118
ag123
ag1482
ag135
ag746
ag151
ag152
ag163
ag169
ag171
ag190
ag205
ag203
ag1192
ag221
ag224
ag228
ag232
ag1297
ag244
ag1384
ag252
ag264
ag269
ag282
ag283
ag286
ag297
ag298
ag311
ag318
ag336
ag341
ag356
ag358
ag365
ag367
ag1291
ag519
ag381
ag382
ag394
ag399
ag349
ag1081
ag418
ag419
ag1469
ag430
ag852
ag436
ag528
ag954
ag1015
ag517
ag520
ag523
ag1420
ag538
ag539
ag544
ag546
ag1588
ag554
ag560
ag565
ag57
ag591
ag164
ag600
ag616
ag284
ag313
ag635
ag638
ag644
ag646
ag1433
ag654
ag656
ag518
ag671
ag521
ag684
ag709
ag869
ag853
ag727
ag739
ag750
ag755
ag757
ag762
ag765
ag773
ag776
ag777
ag1529
ag981
ag1296
ag795
ag1325
ag260
ag813
ag1411
ag816
ag826
ag841
ag843
ag844
ag1353
ag855
ag1680
ag1004
ag874
ag86
ag879
ag890
ag899
ag903
ag904
ag910
ag920
ag444
ag797
ag928
ag930
ag934
ag937
ag944
ag946
ag953
ag967
ag1233
ag993
ag1024
ag1030
ag1100
ag1046
ag1231
ag1066
ag1082
ag1422
ag1439
ag1105
ag1109
ag1110
ag1553
ag1114
ag1119
ag605
ag1148
ag1157
ag1160
ag1171
ag1188
ag1189
ag1200
ag1223
ag1230
ag606
ag716
ag1336
ag1281
ag1282
ag187
ag1313
ag1156
ag1321
ag277
ag1324
ag1211
ag1329
ag1335
ag63
ag1348
ag1356
ag1424
ag1377
ag1378
ag1575
ag925
ag1409
ag1413
ag1440
ag1315
ag1451
ag308
ag395
ag217
ag1470
ag1489
ag1492
ag1496
ag1499
ag48
ag607
ag786
ag1530
ag1543
ag1546
ag1562
ag1570
ag486
ag1115
ag615
ag1590
ag1604
ag1608
ag1617
ag1630
ag1638
ag1641
ag1657
ag1676
ag1622
ag27
ag136
ag207
ag345
ag438
ag683
ag732
ag804
ag1458
ag957
ag996
ag1027
ag1068
ag1073
ag1504
ag1615
ag1644
ag1658
ag1686
ag76
ag73
ag141
ag143
ag166
ag974
ag998
ag1444
ag326
ag668
ag411
ag1071
ag768
ag525
ag1016
ag663
ag748
ag752
ag784
ag807
ag833
ag360
ag884
ag1061
ag1075
ag1208
ag1216
ag1172
ag1332
ag227
ag238
ag1337
ag1545
ag931
ag1618
ag1659
ag13
ag26
ag32
ag70
ag20
ag81
ag129
ag137
ag144
ag145
ag177
ag191
ag204
ag241
ag292
ag316
ag328
ag631
ag337
ag369
ag422
ag437
ag483
ag506
ag530
ag532
ag553
ag570
ag45
ag601
ag651
ag662
ag681
ag1523
ag719
ag740
ag742
ag756
ag798
ag801
ag1369
ag829
ag840
ag851
ag858
ag871
ag962
ag1381
ag985
ag1085
ag1091
ag1117
ag1126
ag1147
ag1150
ag1212
ag1228
ag1235
ag1293
ag1339
ag1392
ag1410
ag1415
ag1467
ag1480
ag1485
ag1513
ag1515
ag1487
ag1544
ag1619
ag1634
ag1635
ag1667
ag1668
ag1683
ag88
ag30
ag305
ag131
ag710
ag1041
ag213
ag245
ag257
ag450
ag281
ag154
ag333
ag7
ag353
ag355
ag373
ag1279
ag473
ag476
ag494
ag514
ag556
ag581
ag587
ag643
ag758
ag712
ag1026
ag754
ag763
ag562
ag787
ag426
ag1525
ag936
ag947
ag977
ag991
ag344
ag1076
ag1083
ag1092
ag1130
ag1151
ag1159
ag1193
ag1237
ag1246
ag979
ag1057
ag1316
ag780
ag1382
ag1386
ag624
ag1438
ag1473
ag1512
ag1542
ag1558
ag1561
ag1586
ag1585
ag1270
ag1626
ag1631
ag1666
ag1479
ag11
ag16
ag19
ag43
ag472
ag83
ag90
ag584
ag109
ag115
ag122
ag126
ag127
ag134
ag139
ag146
ag155
ag159
ag165
ag176
ag194
ag196
ag197
ag199
ag200
ag202
ag210
ag216
ag219
ag225
ag236
ag242
ag266
ag272
ag279
ag1180
ag296
ag301
ag307
ag309
ag324
ag325
ag334
ag612
ag354
ag375
ag392
ag400
ag406
ag1204
ag414
ag420
ag431
ag435
ag454
ag467
ag478
ag482
ag485
ag501
ag509
ag666
ag93
ag543
ag551
ag557
ag559
ag564
ag589
ag150
ag594
ag609
ag610
ag617
ag621
ag626
ag628
ag647
ag649
ag675
ag676
ag707
ag720
ag724
ag730
ag736
ag737
ag749
ag753
ag760
ag767
ag796
ag808
ag818
ag828
ag835
ag849
ag866
ag870
ag875
ag891
ag893
ag901
ag907
ag913
ag918
ag919
ag1405
ag949
ag961
ag969
ag973
ag975
ag982
ag988
ag994
ag178
ag1010
ag1017
ag1028
ag1031
ag1047
ag1054
ag1063
ag1070
ag1079
ag1090
ag1134
ag1136
ag1318
ag1169
ag1174
ag1175
ag1182
ag1184
ag1195
ag1197
ag1207
ag1215
ag1220
ag1221
ag1222
ag1229
ag1232
ag1239
ag1254
ag1262
ag1274
ag1304
ag1345
ag1314
ag1347
ag1352
ag1359
ag1364
ag1365
ag1372
ag1383
ag1400
ag1408
ag1416
ag1441
ag1450
ag1454
ag1456
ag1457
ag1490
ag1500
ag1503
ag1505
ag1521
ag1522
ag1524
ag1549
ag1556
ag1557
ag1565
ag1571
ag1576
ag1580
ag734
ag1597
ag1606
ag1609
ag1612
ag287
ag1647
ag1656
ag1662
ag1672
ag1677
ag608
ag15
ag1376
ag40
ag516
ag59
ag62
ag84
ag1453
ag119
ag669
ag689
ag142
ag160
ag935
ag1387
ag1210
ag175
ag329
ag209
ag218
ag1595
ag231
ag1317
ag246
ag1592
ag56
ag278
ag299
ag323
ag332
ag338
ag339
ag340
ag321
ag361
ag363
ag364
ag377
ag384
ag391
ag396
ag410
ag1374
ag423
ag887
ag471
ag480
ag484
ag490
ag499
ag526
ag1107
ag561
ag571
ag576
ag583
ag1322
ag290
ag593
ag620
ag623
ag629
ag639
ag370
ag642
ag658
ag958
ag678
ag687
ag688
ag691
ag1446
ag694
ag705
ag715
ag735
ag745
ag439
ag1144
ag782
ag802
ag357
ag812
ag814
ag817
ag1437
ag821
ag1537
ag1555
ag848
ag861
ag868
ag873
ag881
ag914
ag900
ag1551
ag462
ag939
ag955
ag657
ag659
ag964
ag986
ag990
ag1011
ag1014
ag1653
ag1050
ag1055
ag1064
ag790
ag1080
ag1087
ag1430
ag1096
ag1129
ag1684
ag1137
ag1138
ag1141
ag1143
ag182
ag1166
ag1167
ag1173
ag1181
ag1203
ag1581
ag459
ag1234
ag1241
ag1245
ag1247
ag1258
ag1264
ag1277
ag1286
ag1294
ag911
ag1032
ag1341
ag1306
ag1351
ag1312
ag1357
ag1633
ag1391
ag1394
ag1395
ag1401
ag1406
ag1419
ag1426
ag1427
ag1428
ag1434
ag1442
ag1445
ag1476
ag1483
ag1510
ag708
ag1516
ag1517
ag1518
ag1535
ag1538
ag1539
ag909
ag1560
ag1563
ag1566
ag1568
ag1582
ag1596
ag1598
ag1603
ag1613
ag1678
ag1624
ag1628
ag1632
ag220
ag1418
ag1652
ag1655
ag1663
as.